----------------
IN: 
0x40000000:  d53800a0  mrs      x0, mpidr_el1
0x40000004:  92400400  and      x0, x0, #3
0x40000008:  b4000060  cbz      x0, #0x40000014

----------------
IN: 
0x40000014:  580003a1  ldr      x1, #0x40000088
0x40000018:  9100003f  mov      sp, x1
0x4000001c:  580003a1  ldr      x1, #0x40000090
0x40000020:  580003c2  ldr      x2, #0x40000098
0x40000024:  eb02003f  cmp      x1, x2
0x40000028:  5400004a  b.ge     #0x40000030

----------------
IN: 
0x40000030:  94000040  bl       #0x40000130

----------------
IN: main
0x40000130:  a9be7bfd  stp      x29, x30, [sp, #-0x20]!
0x40000134:  90000001  adrp     x1, #0x40000000
0x40000138:  9118c021  add      x1, x1, #0x630
0x4000013c:  910003fd  mov      x29, sp
0x40000140:  52800140  movz     w0, #0xa
0x40000144:  d2a12002  movz     x2, #0x900, lsl #16
0x40000148:  528001a3  movz     w3, #0xd
0x4000014c:  a90153f3  stp      x19, x20, [sp, #0x10]
0x40000150:  91000421  add      x1, x1, #1
0x40000154:  7100281f  cmp      w0, #0xa
0x40000158:  54000041  b.ne     #0x40000160

----------------
IN: main
0x4000015c:  b9000043  str      w3, [x2]
0x40000160:  b9000040  str      w0, [x2]
0x40000164:  39400020  ldrb     w0, [x1]
0x40000168:  35ffff40  cbnz     w0, #0x40000150

----------------
IN: main
0x4000015c:  b9000043  str      w3, [x2]

----------------
IN: main
0x40000160:  b9000040  str      w0, [x2]
0x40000164:  39400020  ldrb     w0, [x1]
0x40000168:  35ffff40  cbnz     w0, #0x40000150

----------------
IN: main
0x40000160:  b9000040  str      w0, [x2]

----------------
IN: main
0x40000164:  39400020  ldrb     w0, [x1]
0x40000168:  35ffff40  cbnz     w0, #0x40000150

----------------
IN: main
0x40000150:  91000421  add      x1, x1, #1
0x40000154:  7100281f  cmp      w0, #0xa
0x40000158:  54000041  b.ne     #0x40000160

----------------
IN: main
0x4000016c:  97ffffb2  bl       #0x40000034

----------------
IN: 
0x40000034:  d5384240  mrs      x0, currentel
0x40000038:  d342fc00  lsr      x0, x0, #2
0x4000003c:  d65f03c0  ret      

----------------
IN: main
0x40000170:  90000002  adrp     x2, #0x40000000
0x40000174:  9119a042  add      x2, x2, #0x668
0x40000178:  52800d21  movz     w1, #0x69
0x4000017c:  d2a12007  movz     x7, #0x900, lsl #16
0x40000180:  528001a3  movz     w3, #0xd
0x40000184:  d503201f  nop      
0x40000188:  91000442  add      x2, x2, #1
0x4000018c:  7100283f  cmp      w1, #0xa
0x40000190:  54000041  b.ne     #0x40000198

----------------
IN: main
0x40000198:  b90000e1  str      w1, [x7]
0x4000019c:  39400041  ldrb     w1, [x2]
0x400001a0:  35ffff41  cbnz     w1, #0x40000188

----------------
IN: main
0x40000198:  b90000e1  str      w1, [x7]

----------------
IN: main
0x4000019c:  39400041  ldrb     w1, [x2]
0x400001a0:  35ffff41  cbnz     w1, #0x40000188

----------------
IN: main
0x40000188:  91000442  add      x2, x2, #1
0x4000018c:  7100283f  cmp      w1, #0xa
0x40000190:  54000041  b.ne     #0x40000198

----------------
IN: main
0x400001a4:  97ffffbf  bl       #0x400000a0

----------------
IN: uart_put_hex
0x400000a0:  d10083ff  sub      sp, sp, #0x20
0x400000a4:  90000001  adrp     x1, #0x40000000
0x400000a8:  91186021  add      x1, x1, #0x618
0x400000ac:  910023e4  add      x4, sp, #8
0x400000b0:  90000002  adrp     x2, #0x40000000
0x400000b4:  91184042  add      x2, x2, #0x610
0x400000b8:  d2a12003  movz     x3, #0x900, lsl #16
0x400000bc:  528001a5  movz     w5, #0xd
0x400000c0:  a9402428  ldp      x8, x9, [x1]
0x400000c4:  a900a7e8  stp      x8, x9, [sp, #8]
0x400000c8:  39404026  ldrb     w6, [x1, #0x10]
0x400000cc:  52800601  movz     w1, #0x30
0x400000d0:  39004086  strb     w6, [x4, #0x10]
0x400000d4:  d503201f  nop      
0x400000d8:  91000442  add      x2, x2, #1
0x400000dc:  7100283f  cmp      w1, #0xa
0x400000e0:  54000041  b.ne     #0x400000e8

----------------
IN: uart_put_hex
0x400000e8:  b9000061  str      w1, [x3]
0x400000ec:  39400041  ldrb     w1, [x2]
0x400000f0:  35ffff41  cbnz     w1, #0x400000d8

----------------
IN: uart_put_hex
0x400000e8:  b9000061  str      w1, [x3]

----------------
IN: uart_put_hex
0x400000ec:  39400041  ldrb     w1, [x2]
0x400000f0:  35ffff41  cbnz     w1, #0x400000d8

----------------
IN: uart_put_hex
0x400000d8:  91000442  add      x2, x2, #1
0x400000dc:  7100283f  cmp      w1, #0xa
0x400000e0:  54000041  b.ne     #0x400000e8

----------------
IN: uart_put_hex
0x400000f4:  52800781  movz     w1, #0x3c
0x400000f8:  d2a12003  movz     x3, #0x900, lsl #16
0x400000fc:  528001a5  movz     w5, #0xd
0x40000100:  9ac12402  lsr      x2, x0, x1
0x40000104:  92400c42  and      x2, x2, #0xf
0x40000108:  51001021  sub      w1, w1, #4
0x4000010c:  38626882  ldrb     w2, [x4, x2]
0x40000110:  7100285f  cmp      w2, #0xa
0x40000114:  54000041  b.ne     #0x4000011c

----------------
IN: uart_put_hex
0x4000011c:  b9000062  str      w2, [x3]
0x40000120:  3100103f  cmn      w1, #4
0x40000124:  54fffee1  b.ne     #0x40000100

----------------
IN: uart_put_hex
0x4000011c:  b9000062  str      w2, [x3]

----------------
IN: uart_put_hex
0x40000120:  3100103f  cmn      w1, #4
0x40000124:  54fffee1  b.ne     #0x40000100

----------------
IN: uart_put_hex
0x40000100:  9ac12402  lsr      x2, x0, x1
0x40000104:  92400c42  and      x2, x2, #0xf
0x40000108:  51001021  sub      w1, w1, #4
0x4000010c:  38626882  ldrb     w2, [x4, x2]
0x40000110:  7100285f  cmp      w2, #0xa
0x40000114:  54000041  b.ne     #0x4000011c

----------------
IN: uart_put_hex
0x40000128:  910083ff  add      sp, sp, #0x20
0x4000012c:  d65f03c0  ret      

----------------
IN: main
0x400001a8:  528001a1  movz     w1, #0xd
0x400001ac:  b90000e1  str      w1, [x7]
0x400001b0:  52800141  movz     w1, #0xa
0x400001b4:  b90000e1  str      w1, [x7]
0x400001b8:  f100081f  cmp      x0, #2
0x400001bc:  540001e0  b.eq     #0x400001f8

----------------
IN: main
0x400001ac:  b90000e1  str      w1, [x7]

----------------
IN: main
0x400001b0:  52800141  movz     w1, #0xa
0x400001b4:  b90000e1  str      w1, [x7]
0x400001b8:  f100081f  cmp      x0, #2
0x400001bc:  540001e0  b.eq     #0x400001f8

----------------
IN: main
0x400001b4:  b90000e1  str      w1, [x7]

----------------
IN: main
0x400001b8:  f100081f  cmp      x0, #2
0x400001bc:  540001e0  b.eq     #0x400001f8

----------------
IN: main
0x400001f8:  90000001  adrp     x1, #0x40000000
0x400001fc:  911ac021  add      x1, x1, #0x6b0
0x40000200:  52800d20  movz     w0, #0x69
0x40000204:  d2a12002  movz     x2, #0x900, lsl #16
0x40000208:  528001a3  movz     w3, #0xd
0x4000020c:  d503201f  nop      
0x40000210:  91000421  add      x1, x1, #1
0x40000214:  7100281f  cmp      w0, #0xa
0x40000218:  54000041  b.ne     #0x40000220

----------------
IN: main
0x40000220:  b9000040  str      w0, [x2]
0x40000224:  39400020  ldrb     w0, [x1]
0x40000228:  35ffff40  cbnz     w0, #0x40000210

----------------
IN: main
0x40000220:  b9000040  str      w0, [x2]

----------------
IN: main
0x40000224:  39400020  ldrb     w0, [x1]
0x40000228:  35ffff40  cbnz     w0, #0x40000210

----------------
IN: main
0x40000210:  91000421  add      x1, x1, #1
0x40000214:  7100281f  cmp      w0, #0xa
0x40000218:  54000041  b.ne     #0x40000220

----------------
IN: main
0x4000021c:  b9000043  str      w3, [x2]
0x40000220:  b9000040  str      w0, [x2]
0x40000224:  39400020  ldrb     w0, [x1]
0x40000228:  35ffff40  cbnz     w0, #0x40000210

----------------
IN: main
0x4000021c:  b9000043  str      w3, [x2]

----------------
IN: main
0x4000022c:  90000001  adrp     x1, #0x40000000
0x40000230:  911b2021  add      x1, x1, #0x6c8
0x40000234:  52800d20  movz     w0, #0x69
0x40000238:  d2a12002  movz     x2, #0x900, lsl #16
0x4000023c:  528001a3  movz     w3, #0xd
0x40000240:  91000421  add      x1, x1, #1
0x40000244:  7100281f  cmp      w0, #0xa
0x40000248:  54000041  b.ne     #0x40000250

----------------
IN: main
0x40000250:  b9000040  str      w0, [x2]
0x40000254:  39400020  ldrb     w0, [x1]
0x40000258:  35ffff40  cbnz     w0, #0x40000240

----------------
IN: main
0x40000250:  b9000040  str      w0, [x2]

----------------
IN: main
0x40000254:  39400020  ldrb     w0, [x1]
0x40000258:  35ffff40  cbnz     w0, #0x40000240

----------------
IN: main
0x40000240:  91000421  add      x1, x1, #1
0x40000244:  7100281f  cmp      w0, #0xa
0x40000248:  54000041  b.ne     #0x40000250

----------------
IN: main
0x4000024c:  b9000043  str      w3, [x2]
0x40000250:  b9000040  str      w0, [x2]
0x40000254:  39400020  ldrb     w0, [x1]
0x40000258:  35ffff40  cbnz     w0, #0x40000240

----------------
IN: main
0x4000024c:  b9000043  str      w3, [x2]

----------------
IN: main
0x4000025c:  d2b00000  movz     x0, #0x8000, lsl #16
0x40000260:  97ffff7e  bl       #0x40000058

----------------
IN: 
0x40000058:  d51c1100  msr      hcr_el2, x0

----------------
IN: 
0x4000005c:  d65f03c0  ret      

----------------
IN: main
0x40000264:  d2800000  movz     x0, #0
0x40000268:  97ffff7e  bl       #0x40000060

----------------
IN: 
0x40000060:  d51c1140  msr      cptr_el2, x0

----------------
IN: 
0x40000064:  d65f03c0  ret      

----------------
IN: main
0x4000026c:  90000001  adrp     x1, #0x40000000
0x40000270:  911ba021  add      x1, x1, #0x6e8
0x40000274:  52800d20  movz     w0, #0x69
0x40000278:  d2a12002  movz     x2, #0x900, lsl #16
0x4000027c:  528001a3  movz     w3, #0xd
0x40000280:  91000421  add      x1, x1, #1
0x40000284:  7100281f  cmp      w0, #0xa
0x40000288:  54000041  b.ne     #0x40000290

----------------
IN: main
0x40000290:  b9000040  str      w0, [x2]
0x40000294:  39400020  ldrb     w0, [x1]
0x40000298:  35ffff40  cbnz     w0, #0x40000280

----------------
IN: main
0x40000290:  b9000040  str      w0, [x2]

----------------
IN: main
0x40000294:  39400020  ldrb     w0, [x1]
0x40000298:  35ffff40  cbnz     w0, #0x40000280

----------------
IN: main
0x40000280:  91000421  add      x1, x1, #1
0x40000284:  7100281f  cmp      w0, #0xa
0x40000288:  54000041  b.ne     #0x40000290

----------------
IN: main
0x4000028c:  b9000043  str      w3, [x2]
0x40000290:  b9000040  str      w0, [x2]
0x40000294:  39400020  ldrb     w0, [x1]
0x40000298:  35ffff40  cbnz     w0, #0x40000280

----------------
IN: main
0x4000028c:  b9000043  str      w3, [x2]

----------------
IN: main
0x4000029c:  90000001  adrp     x1, #0x40000000
0x400002a0:  911c2021  add      x1, x1, #0x708
0x400002a4:  52800d20  movz     w0, #0x69
0x400002a8:  d2a12002  movz     x2, #0x900, lsl #16
0x400002ac:  528001a3  movz     w3, #0xd
0x400002b0:  91000421  add      x1, x1, #1
0x400002b4:  7100281f  cmp      w0, #0xa
0x400002b8:  54000041  b.ne     #0x400002c0

----------------
IN: main
0x400002c0:  b9000040  str      w0, [x2]
0x400002c4:  39400020  ldrb     w0, [x1]
0x400002c8:  35ffff40  cbnz     w0, #0x400002b0

----------------
IN: main
0x400002c0:  b9000040  str      w0, [x2]

----------------
IN: main
0x400002c4:  39400020  ldrb     w0, [x1]
0x400002c8:  35ffff40  cbnz     w0, #0x400002b0

----------------
IN: main
0x400002b0:  91000421  add      x1, x1, #1
0x400002b4:  7100281f  cmp      w0, #0xa
0x400002b8:  54000041  b.ne     #0x400002c0

----------------
IN: main
0x400002bc:  b9000043  str      w3, [x2]
0x400002c0:  b9000040  str      w0, [x2]
0x400002c4:  39400020  ldrb     w0, [x1]
0x400002c8:  35ffff40  cbnz     w0, #0x400002b0

----------------
IN: main
0x400002bc:  b9000043  str      w3, [x2]

----------------
IN: main
0x400002cc:  90000000  adrp     x0, #0x40000000
0x400002d0:  b0000001  adrp     x1, #0x40001000
0x400002d4:  91000033  add      x19, x1, #0
0x400002d8:  3dc1fc00  ldr      q0, [x0, #0x7f0]
0x400002dc:  d286a320  movz     x0, #0x3519
0x400002e0:  f2a00040  movk     x0, #0x2, lsl #16
0x400002e4:  3d800020  str      q0, [x1]
0x400002e8:  97ffff60  bl       #0x40000068

----------------
IN: 
0x40000068:  d51c2040  msr      tcr_el2, x0

----------------
IN: 
0x4000006c:  d65f03c0  ret      

----------------
IN: main
0x400002ec:  d29fe080  movz     x0, #0xff04
0x400002f0:  d51ca200  msr      mair_el2, x0

----------------
IN: main
0x400002f4:  aa1303e0  mov      x0, x19
0x400002f8:  97ffff5e  bl       #0x40000070

----------------
IN: 
0x40000070:  d51c2000  msr      ttbr0_el2, x0

----------------
IN: 
0x40000074:  d65f03c0  ret      

----------------
IN: main
0x400002fc:  d5033f9f  dsb      sy
0x40000300:  d5033fdf  isb      

----------------
IN: main
0x40000304:  97ffff53  bl       #0x40000050

----------------
IN: 
0x40000050:  d53c1000  mrs      x0, sctlr_el2
0x40000054:  d65f03c0  ret      

----------------
IN: main
0x40000308:  d28200a1  movz     x1, #0x1005
0x4000030c:  aa010000  orr      x0, x0, x1
0x40000310:  97ffff4e  bl       #0x40000048

----------------
IN: 
0x40000048:  d51c1000  msr      sctlr_el2, x0

----------------
IN: 
0x4000004c:  d65f03c0  ret      

----------------
IN: main
0x40000314:  d5033fdf  isb      

----------------
IN: main
0x40000318:  90000001  adrp     x1, #0x40000000
0x4000031c:  911c8021  add      x1, x1, #0x720
0x40000320:  52800d20  movz     w0, #0x69
0x40000324:  d2a12002  movz     x2, #0x900, lsl #16
0x40000328:  528001a3  movz     w3, #0xd
0x4000032c:  d503201f  nop      
0x40000330:  91000421  add      x1, x1, #1
0x40000334:  7100281f  cmp      w0, #0xa
0x40000338:  54000041  b.ne     #0x40000340

----------------
IN: main
0x40000340:  b9000040  str      w0, [x2]
0x40000344:  39400020  ldrb     w0, [x1]
0x40000348:  35ffff40  cbnz     w0, #0x40000330

----------------
IN: main
0x40000340:  b9000040  str      w0, [x2]

----------------
IN: main
0x40000344:  39400020  ldrb     w0, [x1]
0x40000348:  35ffff40  cbnz     w0, #0x40000330

----------------
IN: main
0x40000330:  91000421  add      x1, x1, #1
0x40000334:  7100281f  cmp      w0, #0xa
0x40000338:  54000041  b.ne     #0x40000340

----------------
IN: main
0x4000033c:  b9000043  str      w3, [x2]
0x40000340:  b9000040  str      w0, [x2]
0x40000344:  39400020  ldrb     w0, [x1]
0x40000348:  35ffff40  cbnz     w0, #0x40000330

----------------
IN: main
0x4000033c:  b9000043  str      w3, [x2]

----------------
IN: main
0x4000034c:  90000001  adrp     x1, #0x40000000
0x40000350:  911d0021  add      x1, x1, #0x740
0x40000354:  52800d20  movz     w0, #0x69
0x40000358:  d2a12002  movz     x2, #0x900, lsl #16
0x4000035c:  528001a3  movz     w3, #0xd
0x40000360:  91000421  add      x1, x1, #1
0x40000364:  7100281f  cmp      w0, #0xa
0x40000368:  54000041  b.ne     #0x40000370

----------------
IN: main
0x40000370:  b9000040  str      w0, [x2]
0x40000374:  39400020  ldrb     w0, [x1]
0x40000378:  35ffff40  cbnz     w0, #0x40000360

----------------
IN: main
0x40000370:  b9000040  str      w0, [x2]

----------------
IN: main
0x40000374:  39400020  ldrb     w0, [x1]
0x40000378:  35ffff40  cbnz     w0, #0x40000360

----------------
IN: main
0x40000360:  91000421  add      x1, x1, #1
0x40000364:  7100281f  cmp      w0, #0xa
0x40000368:  54000041  b.ne     #0x40000370

----------------
IN: main
0x4000036c:  b9000043  str      w3, [x2]
0x40000370:  b9000040  str      w0, [x2]
0x40000374:  39400020  ldrb     w0, [x1]
0x40000378:  35ffff40  cbnz     w0, #0x40000360

----------------
IN: main
0x4000036c:  b9000043  str      w3, [x2]

----------------
IN: main
0x4000037c:  d2a12000  movz     x0, #0x900, lsl #16
0x40000380:  97ffff3e  bl       #0x40000078

----------------
IN: 
0x40000078:  d50c7800  at       s1e2r, x0

----------------
IN: 
0x4000007c:  d5033fdf  isb      

----------------
IN: 
0x40000080:  d5387400  mrs      x0, par_el1
0x40000084:  d65f03c0  ret      

----------------
IN: main
0x40000384:  90000002  adrp     x2, #0x40000000
0x40000388:  911d8042  add      x2, x2, #0x760
0x4000038c:  aa0003e7  mov      x7, x0
0x40000390:  52800ac1  movz     w1, #0x56
0x40000394:  d2a12003  movz     x3, #0x900, lsl #16
0x40000398:  528001a0  movz     w0, #0xd
0x4000039c:  d503201f  nop      
0x400003a0:  91000442  add      x2, x2, #1
0x400003a4:  7100283f  cmp      w1, #0xa
0x400003a8:  54000041  b.ne     #0x400003b0

----------------
IN: main
0x400003b0:  b9000061  str      w1, [x3]
0x400003b4:  39400041  ldrb     w1, [x2]
0x400003b8:  35ffff41  cbnz     w1, #0x400003a0

----------------
IN: main
0x400003b0:  b9000061  str      w1, [x3]

----------------
IN: main
0x400003b4:  39400041  ldrb     w1, [x2]
0x400003b8:  35ffff41  cbnz     w1, #0x400003a0

----------------
IN: main
0x400003a0:  91000442  add      x2, x2, #1
0x400003a4:  7100283f  cmp      w1, #0xa
0x400003a8:  54000041  b.ne     #0x400003b0

----------------
IN: main
0x400003bc:  d2a12000  movz     x0, #0x900, lsl #16
0x400003c0:  97ffff38  bl       #0x400000a0

----------------
IN: uart_put_hex
0x400000a0:  d10083ff  sub      sp, sp, #0x20
0x400000a4:  90000001  adrp     x1, #0x40000000
0x400000a8:  91186021  add      x1, x1, #0x618
0x400000ac:  910023e4  add      x4, sp, #8
0x400000b0:  90000002  adrp     x2, #0x40000000
0x400000b4:  91184042  add      x2, x2, #0x610
0x400000b8:  d2a12003  movz     x3, #0x900, lsl #16
0x400000bc:  528001a5  movz     w5, #0xd
0x400000c0:  a9402428  ldp      x8, x9, [x1]
0x400000c4:  a900a7e8  stp      x8, x9, [sp, #8]
0x400000c8:  39404026  ldrb     w6, [x1, #0x10]
0x400000cc:  52800601  movz     w1, #0x30
0x400000d0:  39004086  strb     w6, [x4, #0x10]
0x400000d4:  d503201f  nop      
0x400000d8:  91000442  add      x2, x2, #1
0x400000dc:  7100283f  cmp      w1, #0xa
0x400000e0:  54000041  b.ne     #0x400000e8

----------------
IN: uart_put_hex
0x400000e8:  b9000061  str      w1, [x3]
0x400000ec:  39400041  ldrb     w1, [x2]
0x400000f0:  35ffff41  cbnz     w1, #0x400000d8

----------------
IN: uart_put_hex
0x400000e8:  b9000061  str      w1, [x3]

----------------
IN: uart_put_hex
0x400000ec:  39400041  ldrb     w1, [x2]
0x400000f0:  35ffff41  cbnz     w1, #0x400000d8

----------------
IN: uart_put_hex
0x400000d8:  91000442  add      x2, x2, #1
0x400000dc:  7100283f  cmp      w1, #0xa
0x400000e0:  54000041  b.ne     #0x400000e8

----------------
IN: uart_put_hex
0x400000f4:  52800781  movz     w1, #0x3c
0x400000f8:  d2a12003  movz     x3, #0x900, lsl #16
0x400000fc:  528001a5  movz     w5, #0xd
0x40000100:  9ac12402  lsr      x2, x0, x1
0x40000104:  92400c42  and      x2, x2, #0xf
0x40000108:  51001021  sub      w1, w1, #4
0x4000010c:  38626882  ldrb     w2, [x4, x2]
0x40000110:  7100285f  cmp      w2, #0xa
0x40000114:  54000041  b.ne     #0x4000011c

----------------
IN: uart_put_hex
0x4000011c:  b9000062  str      w2, [x3]
0x40000120:  3100103f  cmn      w1, #4
0x40000124:  54fffee1  b.ne     #0x40000100

----------------
IN: uart_put_hex
0x4000011c:  b9000062  str      w2, [x3]

----------------
IN: uart_put_hex
0x40000120:  3100103f  cmn      w1, #4
0x40000124:  54fffee1  b.ne     #0x40000100

----------------
IN: uart_put_hex
0x40000100:  9ac12402  lsr      x2, x0, x1
0x40000104:  92400c42  and      x2, x2, #0xf
0x40000108:  51001021  sub      w1, w1, #4
0x4000010c:  38626882  ldrb     w2, [x4, x2]
0x40000110:  7100285f  cmp      w2, #0xa
0x40000114:  54000041  b.ne     #0x4000011c

----------------
IN: uart_put_hex
0x40000128:  910083ff  add      sp, sp, #0x20
0x4000012c:  d65f03c0  ret      

----------------
IN: main
0x400003c4:  90000002  adrp     x2, #0x40000000
0x400003c8:  911dc054  add      x20, x2, #0x770
0x400003cc:  aa1403e2  mov      x2, x20
0x400003d0:  52800401  movz     w1, #0x20
0x400003d4:  528001a3  movz     w3, #0xd
0x400003d8:  91000442  add      x2, x2, #1
0x400003dc:  7100283f  cmp      w1, #0xa
0x400003e0:  54000041  b.ne     #0x400003e8

----------------
IN: main
0x400003e8:  b9000001  str      w1, [x0]
0x400003ec:  39400041  ldrb     w1, [x2]
0x400003f0:  35ffff41  cbnz     w1, #0x400003d8

----------------
IN: main
0x400003e8:  b9000001  str      w1, [x0]

----------------
IN: main
0x400003ec:  39400041  ldrb     w1, [x2]
0x400003f0:  35ffff41  cbnz     w1, #0x400003d8

----------------
IN: main
0x400003d8:  91000442  add      x2, x2, #1
0x400003dc:  7100283f  cmp      w1, #0xa
0x400003e0:  54000041  b.ne     #0x400003e8

----------------
IN: main
0x400003f4:  aa0703e0  mov      x0, x7
0x400003f8:  97ffff2a  bl       #0x400000a0

----------------
IN: main
0x400003fc:  90000002  adrp     x2, #0x40000000
0x40000400:  911de053  add      x19, x2, #0x778
0x40000404:  aa1303e1  mov      x1, x19
0x40000408:  52800ba0  movz     w0, #0x5d
0x4000040c:  d2a12002  movz     x2, #0x900, lsl #16
0x40000410:  528001a3  movz     w3, #0xd
0x40000414:  d503201f  nop      
0x40000418:  91000421  add      x1, x1, #1
0x4000041c:  7100281f  cmp      w0, #0xa
0x40000420:  54000041  b.ne     #0x40000428

----------------
IN: main
0x40000428:  b9000040  str      w0, [x2]
0x4000042c:  39400020  ldrb     w0, [x1]
0x40000430:  35ffff40  cbnz     w0, #0x40000418

----------------
IN: main
0x40000428:  b9000040  str      w0, [x2]

----------------
IN: main
0x4000042c:  39400020  ldrb     w0, [x1]
0x40000430:  35ffff40  cbnz     w0, #0x40000418

----------------
IN: main
0x40000418:  91000421  add      x1, x1, #1
0x4000041c:  7100281f  cmp      w0, #0xa
0x40000420:  54000041  b.ne     #0x40000428

----------------
IN: main
0x40000424:  b9000043  str      w3, [x2]
0x40000428:  b9000040  str      w0, [x2]
0x4000042c:  39400020  ldrb     w0, [x1]
0x40000430:  35ffff40  cbnz     w0, #0x40000418

----------------
IN: main
0x40000424:  b9000043  str      w3, [x2]

----------------
IN: main
0x40000434:  d2a80040  movz     x0, #0x4002, lsl #16
0x40000438:  97ffff10  bl       #0x40000078

----------------
IN: main
0x4000043c:  90000002  adrp     x2, #0x40000000
0x40000440:  911e0042  add      x2, x2, #0x780
0x40000444:  aa0003e7  mov      x7, x0
0x40000448:  52800ac1  movz     w1, #0x56
0x4000044c:  d2a12003  movz     x3, #0x900, lsl #16
0x40000450:  528001a0  movz     w0, #0xd
0x40000454:  d503201f  nop      
0x40000458:  91000442  add      x2, x2, #1
0x4000045c:  7100283f  cmp      w1, #0xa
0x40000460:  54000041  b.ne     #0x40000468

----------------
IN: main
0x40000468:  b9000061  str      w1, [x3]
0x4000046c:  39400041  ldrb     w1, [x2]
0x40000470:  35ffff41  cbnz     w1, #0x40000458

----------------
IN: main
0x40000468:  b9000061  str      w1, [x3]

----------------
IN: main
0x4000046c:  39400041  ldrb     w1, [x2]
0x40000470:  35ffff41  cbnz     w1, #0x40000458

----------------
IN: main
0x40000458:  91000442  add      x2, x2, #1
0x4000045c:  7100283f  cmp      w1, #0xa
0x40000460:  54000041  b.ne     #0x40000468

----------------
IN: main
0x40000474:  d2a80040  movz     x0, #0x4002, lsl #16
0x40000478:  97ffff0a  bl       #0x400000a0

----------------
IN: main
0x4000047c:  aa1403e2  mov      x2, x20
0x40000480:  52800401  movz     w1, #0x20
0x40000484:  d2a12003  movz     x3, #0x900, lsl #16
0x40000488:  528001a0  movz     w0, #0xd
0x4000048c:  d503201f  nop      
0x40000490:  91000442  add      x2, x2, #1
0x40000494:  7100283f  cmp      w1, #0xa
0x40000498:  54000041  b.ne     #0x400004a0

----------------
IN: main
0x400004a0:  b9000061  str      w1, [x3]
0x400004a4:  39400041  ldrb     w1, [x2]
0x400004a8:  35ffff41  cbnz     w1, #0x40000490

----------------
IN: main
0x400004a0:  b9000061  str      w1, [x3]

----------------
IN: main
0x400004a4:  39400041  ldrb     w1, [x2]
0x400004a8:  35ffff41  cbnz     w1, #0x40000490

----------------
IN: main
0x40000490:  91000442  add      x2, x2, #1
0x40000494:  7100283f  cmp      w1, #0xa
0x40000498:  54000041  b.ne     #0x400004a0

----------------
IN: main
0x400004ac:  aa0703e0  mov      x0, x7
0x400004b0:  97fffefc  bl       #0x400000a0

----------------
IN: main
0x400004b4:  aa1303e1  mov      x1, x19
0x400004b8:  52800ba0  movz     w0, #0x5d
0x400004bc:  d2a12002  movz     x2, #0x900, lsl #16
0x400004c0:  528001a3  movz     w3, #0xd
0x400004c4:  d503201f  nop      
0x400004c8:  91000421  add      x1, x1, #1
0x400004cc:  7100281f  cmp      w0, #0xa
0x400004d0:  54000041  b.ne     #0x400004d8

----------------
IN: main
0x400004d8:  b9000040  str      w0, [x2]
0x400004dc:  39400020  ldrb     w0, [x1]
0x400004e0:  35ffff40  cbnz     w0, #0x400004c8

----------------
IN: main
0x400004d8:  b9000040  str      w0, [x2]

----------------
IN: main
0x400004dc:  39400020  ldrb     w0, [x1]
0x400004e0:  35ffff40  cbnz     w0, #0x400004c8

----------------
IN: main
0x400004c8:  91000421  add      x1, x1, #1
0x400004cc:  7100281f  cmp      w0, #0xa
0x400004d0:  54000041  b.ne     #0x400004d8

----------------
IN: main
0x400004d4:  b9000043  str      w3, [x2]
0x400004d8:  b9000040  str      w0, [x2]
0x400004dc:  39400020  ldrb     w0, [x1]
0x400004e0:  35ffff40  cbnz     w0, #0x400004c8

----------------
IN: main
0x400004d4:  b9000043  str      w3, [x2]

----------------
IN: main
0x400004e4:  d2c01000  movz     x0, #0x80, lsl #32
0x400004e8:  97fffee4  bl       #0x40000078

----------------
IN: main
0x400004ec:  90000002  adrp     x2, #0x40000000
0x400004f0:  911e4042  add      x2, x2, #0x790
0x400004f4:  aa0003e7  mov      x7, x0
0x400004f8:  52800ac1  movz     w1, #0x56
0x400004fc:  d2a12003  movz     x3, #0x900, lsl #16
0x40000500:  528001a0  movz     w0, #0xd
0x40000504:  d503201f  nop      
0x40000508:  91000442  add      x2, x2, #1
0x4000050c:  7100283f  cmp      w1, #0xa
0x40000510:  54000041  b.ne     #0x40000518

----------------
IN: main
0x40000518:  b9000061  str      w1, [x3]
0x4000051c:  39400041  ldrb     w1, [x2]
0x40000520:  35ffff41  cbnz     w1, #0x40000508

----------------
IN: main
0x40000518:  b9000061  str      w1, [x3]

----------------
IN: main
0x4000051c:  39400041  ldrb     w1, [x2]
0x40000520:  35ffff41  cbnz     w1, #0x40000508

----------------
IN: main
0x40000508:  91000442  add      x2, x2, #1
0x4000050c:  7100283f  cmp      w1, #0xa
0x40000510:  54000041  b.ne     #0x40000518

----------------
IN: main
0x40000524:  d2c01000  movz     x0, #0x80, lsl #32
0x40000528:  97fffede  bl       #0x400000a0

----------------
IN: main
0x4000052c:  aa1403e2  mov      x2, x20
0x40000530:  52800401  movz     w1, #0x20
0x40000534:  d2a12003  movz     x3, #0x900, lsl #16
0x40000538:  528001a0  movz     w0, #0xd
0x4000053c:  d503201f  nop      
0x40000540:  91000442  add      x2, x2, #1
0x40000544:  7100283f  cmp      w1, #0xa
0x40000548:  54000041  b.ne     #0x40000550

----------------
IN: main
0x40000550:  b9000061  str      w1, [x3]
0x40000554:  39400041  ldrb     w1, [x2]
0x40000558:  35ffff41  cbnz     w1, #0x40000540

----------------
IN: main
0x40000550:  b9000061  str      w1, [x3]

----------------
IN: main
0x40000554:  39400041  ldrb     w1, [x2]
0x40000558:  35ffff41  cbnz     w1, #0x40000540

----------------
IN: main
0x40000540:  91000442  add      x2, x2, #1
0x40000544:  7100283f  cmp      w1, #0xa
0x40000548:  54000041  b.ne     #0x40000550

----------------
IN: main
0x4000055c:  aa0703e0  mov      x0, x7
0x40000560:  97fffed0  bl       #0x400000a0

----------------
IN: main
0x40000564:  aa1303e2  mov      x2, x19
0x40000568:  52800ba1  movz     w1, #0x5d
0x4000056c:  d2a12003  movz     x3, #0x900, lsl #16
0x40000570:  528001a0  movz     w0, #0xd
0x40000574:  d503201f  nop      
0x40000578:  91000442  add      x2, x2, #1
0x4000057c:  7100283f  cmp      w1, #0xa
0x40000580:  54000041  b.ne     #0x40000588

----------------
IN: main
0x40000588:  b9000061  str      w1, [x3]
0x4000058c:  39400041  ldrb     w1, [x2]
0x40000590:  35ffff41  cbnz     w1, #0x40000578

----------------
IN: main
0x40000588:  b9000061  str      w1, [x3]

----------------
IN: main
0x4000058c:  39400041  ldrb     w1, [x2]
0x40000590:  35ffff41  cbnz     w1, #0x40000578

----------------
IN: main
0x40000578:  91000442  add      x2, x2, #1
0x4000057c:  7100283f  cmp      w1, #0xa
0x40000580:  54000041  b.ne     #0x40000588

----------------
IN: main
0x40000584:  b9000060  str      w0, [x3]
0x40000588:  b9000061  str      w1, [x3]
0x4000058c:  39400041  ldrb     w1, [x2]
0x40000590:  35ffff41  cbnz     w1, #0x40000578

----------------
IN: main
0x40000584:  b9000060  str      w0, [x3]

----------------
IN: main
0x40000594:  360001c7  tbz      w7, #0, #0x400005cc

----------------
IN: main
0x40000598:  90000001  adrp     x1, #0x40000000
0x4000059c:  911e8021  add      x1, x1, #0x7a0
0x400005a0:  52800d20  movz     w0, #0x69
0x400005a4:  d2a12002  movz     x2, #0x900, lsl #16
0x400005a8:  528001a3  movz     w3, #0xd
0x400005ac:  d503201f  nop      
0x400005b0:  91000421  add      x1, x1, #1
0x400005b4:  7100281f  cmp      w0, #0xa
0x400005b8:  54000041  b.ne     #0x400005c0

----------------
IN: main
0x400005c0:  b9000040  str      w0, [x2]
0x400005c4:  39400020  ldrb     w0, [x1]
0x400005c8:  35ffff40  cbnz     w0, #0x400005b0

----------------
IN: main
0x400005c0:  b9000040  str      w0, [x2]

----------------
IN: main
0x400005c4:  39400020  ldrb     w0, [x1]
0x400005c8:  35ffff40  cbnz     w0, #0x400005b0

----------------
IN: main
0x400005b0:  91000421  add      x1, x1, #1
0x400005b4:  7100281f  cmp      w0, #0xa
0x400005b8:  54000041  b.ne     #0x400005c0

----------------
IN: main
0x400005bc:  b9000043  str      w3, [x2]
0x400005c0:  b9000040  str      w0, [x2]
0x400005c4:  39400020  ldrb     w0, [x1]
0x400005c8:  35ffff40  cbnz     w0, #0x400005b0

----------------
IN: main
0x400005bc:  b9000043  str      w3, [x2]

----------------
IN: main
0x400005cc:  90000001  adrp     x1, #0x40000000
0x400005d0:  911f6021  add      x1, x1, #0x7d8
0x400005d4:  52800d20  movz     w0, #0x69
0x400005d8:  d2a12002  movz     x2, #0x900, lsl #16
0x400005dc:  528001a3  movz     w3, #0xd
0x400005e0:  91000421  add      x1, x1, #1
0x400005e4:  7100281f  cmp      w0, #0xa
0x400005e8:  54000041  b.ne     #0x400005f0

----------------
IN: main
0x400005f0:  b9000040  str      w0, [x2]
0x400005f4:  39400020  ldrb     w0, [x1]
0x400005f8:  35ffff40  cbnz     w0, #0x400005e0

----------------
IN: main
0x400005f0:  b9000040  str      w0, [x2]

----------------
IN: main
0x400005f4:  39400020  ldrb     w0, [x1]
0x400005f8:  35ffff40  cbnz     w0, #0x400005e0

----------------
IN: main
0x400005e0:  91000421  add      x1, x1, #1
0x400005e4:  7100281f  cmp      w0, #0xa
0x400005e8:  54000041  b.ne     #0x400005f0

----------------
IN: main
0x400005ec:  b9000043  str      w3, [x2]
0x400005f0:  b9000040  str      w0, [x2]
0x400005f4:  39400020  ldrb     w0, [x1]
0x400005f8:  35ffff40  cbnz     w0, #0x400005e0

----------------
IN: main
0x400005ec:  b9000043  str      w3, [x2]

----------------
IN: main
0x400005fc:  a94153f3  ldp      x19, x20, [sp, #0x10]
0x40000600:  a8c27bfd  ldp      x29, x30, [sp], #0x20
0x40000604:  17fffe8f  b        #0x40000040

----------------
IN: 
0x40000040:  d503207f  wfi      

