----------------
IN: 
0x40000000:  d53800a0  mrs      x0, mpidr_el1
0x40000004:  92400400  and      x0, x0, #3
0x40000008:  b4000060  cbz      x0, #0x40000014

----------------
IN: 
0x40000014:  58000161  ldr      x1, #0x40000040
0x40000018:  9100003f  mov      sp, x1
0x4000001c:  58000161  ldr      x1, #0x40000048
0x40000020:  58000182  ldr      x2, #0x40000050
0x40000024:  eb02003f  cmp      x1, x2
0x40000028:  5400004a  b.ge     #0x40000030

----------------
IN: 
0x4000002c:  f800843f  str      xzr, [x1], #8
0x40000030:  94000154  bl       #0x40000580

----------------
IN: main
0x40000580:  a9be7bfd  stp      x29, x30, [sp, #-0x20]!
0x40000584:  b0000001  adrp     x1, #0x40001000
0x40000588:  912aa021  add      x1, x1, #0xaa8
0x4000058c:  910003fd  mov      x29, sp
0x40000590:  52800140  movz     w0, #0xa
0x40000594:  d2a12002  movz     x2, #0x900, lsl #16
0x40000598:  528001a3  movz     w3, #0xd
0x4000059c:  a90153f3  stp      x19, x20, [sp, #0x10]
0x400005a0:  91000421  add      x1, x1, #1
0x400005a4:  7100281f  cmp      w0, #0xa
0x400005a8:  54000041  b.ne     #0x400005b0

----------------
IN: main
0x400005ac:  b9000043  str      w3, [x2]
0x400005b0:  b9000040  str      w0, [x2]
0x400005b4:  39400020  ldrb     w0, [x1]
0x400005b8:  35ffff40  cbnz     w0, #0x400005a0

----------------
IN: main
0x400005ac:  b9000043  str      w3, [x2]

----------------
IN: main
0x400005b0:  b9000040  str      w0, [x2]
0x400005b4:  39400020  ldrb     w0, [x1]
0x400005b8:  35ffff40  cbnz     w0, #0x400005a0

----------------
IN: main
0x400005b0:  b9000040  str      w0, [x2]

----------------
IN: main
0x400005b4:  39400020  ldrb     w0, [x1]
0x400005b8:  35ffff40  cbnz     w0, #0x400005a0

----------------
IN: main
0x400005a0:  91000421  add      x1, x1, #1
0x400005a4:  7100281f  cmp      w0, #0xa
0x400005a8:  54000041  b.ne     #0x400005b0

----------------
IN: main
0x400005bc:  940004a3  bl       #0x40001848

----------------
IN: 
0x40001848:  d5384240  mrs      x0, currentel
0x4000184c:  d342fc00  lsr      x0, x0, #2
0x40001850:  d65f03c0  ret      

----------------
IN: main
0x400005c0:  f100081f  cmp      x0, #2
0x400005c4:  54000040  b.eq     #0x400005cc

----------------
IN: main
0x400005cc:  b0000001  adrp     x1, #0x40001000
0x400005d0:  912b8021  add      x1, x1, #0xae0
0x400005d4:  52800d20  movz     w0, #0x69
0x400005d8:  d2a12002  movz     x2, #0x900, lsl #16
0x400005dc:  528001a3  movz     w3, #0xd
0x400005e0:  91000421  add      x1, x1, #1
0x400005e4:  7100281f  cmp      w0, #0xa
0x400005e8:  54000041  b.ne     #0x400005f0

----------------
IN: main
0x400005f0:  b9000040  str      w0, [x2]
0x400005f4:  39400020  ldrb     w0, [x1]
0x400005f8:  35ffff40  cbnz     w0, #0x400005e0

----------------
IN: main
0x400005f0:  b9000040  str      w0, [x2]

----------------
IN: main
0x400005f4:  39400020  ldrb     w0, [x1]
0x400005f8:  35ffff40  cbnz     w0, #0x400005e0

----------------
IN: main
0x400005e0:  91000421  add      x1, x1, #1
0x400005e4:  7100281f  cmp      w0, #0xa
0x400005e8:  54000041  b.ne     #0x400005f0

----------------
IN: main
0x400005ec:  b9000043  str      w3, [x2]
0x400005f0:  b9000040  str      w0, [x2]
0x400005f4:  39400020  ldrb     w0, [x1]
0x400005f8:  35ffff40  cbnz     w0, #0x400005e0

----------------
IN: main
0x400005ec:  b9000043  str      w3, [x2]

----------------
IN: main
0x400005fc:  b0000000  adrp     x0, #0x40001000
0x40000600:  91000000  add      x0, x0, #0
0x40000604:  940004a0  bl       #0x40001884

----------------
IN: 
0x40001884:  d51cc000  msr      vbar_el2, x0

----------------
IN: 
0x40001888:  d65f03c0  ret      

----------------
IN: main
0x40000608:  d2800220  movz     x0, #0x11
0x4000060c:  f2b00000  movk     x0, #0x8000, lsl #16
0x40000610:  94000499  bl       #0x40001874

----------------
IN: 
0x40001874:  d51c1100  msr      hcr_el2, x0

----------------
IN: 
0x40001878:  d65f03c0  ret      

----------------
IN: main
0x40000614:  d2800000  movz     x0, #0
0x40000618:  94000499  bl       #0x4000187c

----------------
IN: 
0x4000187c:  d51c1140  msr      cptr_el2, x0

----------------
IN: 
0x40001880:  d65f03c0  ret      

----------------
IN: main
0x4000061c:  b0000001  adrp     x1, #0x40001000
0x40000620:  912be021  add      x1, x1, #0xaf8
0x40000624:  52800d20  movz     w0, #0x69
0x40000628:  d2a12002  movz     x2, #0x900, lsl #16
0x4000062c:  528001a3  movz     w3, #0xd
0x40000630:  91000421  add      x1, x1, #1
0x40000634:  7100281f  cmp      w0, #0xa
0x40000638:  54000041  b.ne     #0x40000640

----------------
IN: main
0x40000640:  b9000040  str      w0, [x2]
0x40000644:  39400020  ldrb     w0, [x1]
0x40000648:  35ffff40  cbnz     w0, #0x40000630

----------------
IN: main
0x40000640:  b9000040  str      w0, [x2]

----------------
IN: main
0x40000644:  39400020  ldrb     w0, [x1]
0x40000648:  35ffff40  cbnz     w0, #0x40000630

----------------
IN: main
0x40000630:  91000421  add      x1, x1, #1
0x40000634:  7100281f  cmp      w0, #0xa
0x40000638:  54000041  b.ne     #0x40000640

----------------
IN: main
0x4000063c:  b9000043  str      w3, [x2]
0x40000640:  b9000040  str      w0, [x2]
0x40000644:  39400020  ldrb     w0, [x1]
0x40000648:  35ffff40  cbnz     w0, #0x40000630

----------------
IN: main
0x4000063c:  b9000043  str      w3, [x2]

----------------
IN: main
0x4000064c:  b0000000  adrp     x0, #0x40001000
0x40000650:  90000021  adrp     x1, #0x40004000
0x40000654:  91000033  add      x19, x1, #0
0x40000658:  3dc32800  ldr      q0, [x0, #0xca0]
0x4000065c:  d29fe080  movz     x0, #0xff04
0x40000660:  3d800020  str      q0, [x1]
0x40000664:  94000492  bl       #0x400018ac

----------------
IN: 
0x400018ac:  d51ca200  msr      mair_el2, x0

----------------
IN: 
0x400018b0:  d65f03c0  ret      

----------------
IN: main
0x40000668:  d286a320  movz     x0, #0x3519
0x4000066c:  f2a00040  movk     x0, #0x2, lsl #16
0x40000670:  9400047d  bl       #0x40001864

----------------
IN: 
0x40001864:  d51c2040  msr      tcr_el2, x0

----------------
IN: 
0x40001868:  d65f03c0  ret      

----------------
IN: main
0x40000674:  aa1303e0  mov      x0, x19
0x40000678:  9400047d  bl       #0x4000186c

----------------
IN: 
0x4000186c:  d51c2000  msr      ttbr0_el2, x0

----------------
IN: 
0x40001870:  d65f03c0  ret      

----------------
IN: main
0x4000067c:  d5033fdf  isb      

----------------
IN: main
0x40000680:  94000477  bl       #0x4000185c

----------------
IN: 
0x4000185c:  d53c1000  mrs      x0, sctlr_el2
0x40001860:  d65f03c0  ret      

----------------
IN: main
0x40000684:  d28200a1  movz     x1, #0x1005
0x40000688:  aa010000  orr      x0, x0, x1
0x4000068c:  94000472  bl       #0x40001854

----------------
IN: 
0x40001854:  d51c1000  msr      sctlr_el2, x0

----------------
IN: 
0x40001858:  d65f03c0  ret      

----------------
IN: main
0x40000690:  d5033fdf  isb      

----------------
IN: main
0x40000694:  b0000001  adrp     x1, #0x40001000
0x40000698:  912c6021  add      x1, x1, #0xb18
0x4000069c:  52800d20  movz     w0, #0x69
0x400006a0:  d2a12002  movz     x2, #0x900, lsl #16
0x400006a4:  528001a3  movz     w3, #0xd
0x400006a8:  91000421  add      x1, x1, #1
0x400006ac:  7100281f  cmp      w0, #0xa
0x400006b0:  54000041  b.ne     #0x400006b8

----------------
IN: main
0x400006b8:  b9000040  str      w0, [x2]
0x400006bc:  39400020  ldrb     w0, [x1]
0x400006c0:  35ffff40  cbnz     w0, #0x400006a8

----------------
IN: main
0x400006b8:  b9000040  str      w0, [x2]

----------------
IN: main
0x400006bc:  39400020  ldrb     w0, [x1]
0x400006c0:  35ffff40  cbnz     w0, #0x400006a8

----------------
IN: main
0x400006a8:  91000421  add      x1, x1, #1
0x400006ac:  7100281f  cmp      w0, #0xa
0x400006b0:  54000041  b.ne     #0x400006b8

----------------
IN: main
0x400006b4:  b9000043  str      w3, [x2]
0x400006b8:  b9000040  str      w0, [x2]
0x400006bc:  39400020  ldrb     w0, [x1]
0x400006c0:  35ffff40  cbnz     w0, #0x400006a8

----------------
IN: main
0x400006b4:  b9000043  str      w3, [x2]

----------------
IN: main
0x400006c4:  97ffff9b  bl       #0x40000530

----------------
IN: vm_create
0x40000530:  b0000002  adrp     x2, #0x40001000
0x40000534:  d0000000  adrp     x0, #0x40002000
0x40000538:  91000000  add      x0, x0, #0
0x4000053c:  b0000001  adrp     x1, #0x40001000
0x40000540:  3dc31c42  ldr      q2, [x2, #0xc70]
0x40000544:  d280ff82  movz     x2, #0x7fc
0x40000548:  b0000003  adrp     x3, #0x40001000
0x4000054c:  f900a802  str      x2, [x0, #0x150]
0x40000550:  b0000002  adrp     x2, #0x40001000
0x40000554:  3dc31823  ldr      q3, [x1, #0xc60]
0x40000558:  52800041  movz     w1, #0x2
0x4000055c:  3dc32061  ldr      q1, [x3, #0xc80]
0x40000560:  b9031801  str      w1, [x0, #0x318]
0x40000564:  3dc32440  ldr      q0, [x2, #0xc90]
0x40000568:  ad088803  stp      q3, q2, [x0, #0x110]
0x4000056c:  3d804c01  str      q1, [x0, #0x130]
0x40000570:  3d805000  str      q0, [x0, #0x140]
0x40000574:  d65f03c0  ret      

----------------
IN: main
0x400006c8:  b0000001  adrp     x1, #0x40001000
0x400006cc:  912ce021  add      x1, x1, #0xb38
0x400006d0:  52800d20  movz     w0, #0x69
0x400006d4:  d2a12002  movz     x2, #0x900, lsl #16
0x400006d8:  528001a3  movz     w3, #0xd
0x400006dc:  d503201f  nop      
0x400006e0:  91000421  add      x1, x1, #1
0x400006e4:  7100281f  cmp      w0, #0xa
0x400006e8:  54000041  b.ne     #0x400006f0

----------------
IN: main
0x400006f0:  b9000040  str      w0, [x2]
0x400006f4:  39400020  ldrb     w0, [x1]
0x400006f8:  35ffff40  cbnz     w0, #0x400006e0

----------------
IN: main
0x400006f0:  b9000040  str      w0, [x2]

----------------
IN: main
0x400006f4:  39400020  ldrb     w0, [x1]
0x400006f8:  35ffff40  cbnz     w0, #0x400006e0

----------------
IN: main
0x400006e0:  91000421  add      x1, x1, #1
0x400006e4:  7100281f  cmp      w0, #0xa
0x400006e8:  54000041  b.ne     #0x400006f0

----------------
IN: main
0x400006ec:  b9000043  str      w3, [x2]
0x400006f0:  b9000040  str      w0, [x2]
0x400006f4:  39400020  ldrb     w0, [x1]
0x400006f8:  35ffff40  cbnz     w0, #0x400006e0

----------------
IN: main
0x400006ec:  b9000043  str      w3, [x2]

----------------
IN: main
0x400006fc:  b0000001  adrp     x1, #0x40001000
0x40000700:  912d4021  add      x1, x1, #0xb50
0x40000704:  52800d20  movz     w0, #0x69
0x40000708:  d2a12002  movz     x2, #0x900, lsl #16
0x4000070c:  528001a3  movz     w3, #0xd
0x40000710:  91000421  add      x1, x1, #1
0x40000714:  7100281f  cmp      w0, #0xa
0x40000718:  54000041  b.ne     #0x40000720

----------------
IN: main
0x40000720:  b9000040  str      w0, [x2]
0x40000724:  39400020  ldrb     w0, [x1]
0x40000728:  35ffff40  cbnz     w0, #0x40000710

----------------
IN: main
0x40000720:  b9000040  str      w0, [x2]

----------------
IN: main
0x40000724:  39400020  ldrb     w0, [x1]
0x40000728:  35ffff40  cbnz     w0, #0x40000710

----------------
IN: main
0x40000710:  91000421  add      x1, x1, #1
0x40000714:  7100281f  cmp      w0, #0xa
0x40000718:  54000041  b.ne     #0x40000720

----------------
IN: main
0x4000071c:  b9000043  str      w3, [x2]
0x40000720:  b9000040  str      w0, [x2]
0x40000724:  39400020  ldrb     w0, [x1]
0x40000728:  35ffff40  cbnz     w0, #0x40000710

----------------
IN: main
0x4000071c:  b9000043  str      w3, [x2]

----------------
IN: main
0x4000072c:  f0000013  adrp     x19, #0x40003000
0x40000730:  91000273  add      x19, x19, #0
0x40000734:  91400661  add      x1, x19, #1, lsl #12
0x40000738:  aa1303e0  mov      x0, x19
0x4000073c:  d503201f  nop      
0x40000740:  f800841f  str      xzr, [x0], #8
0x40000744:  eb01001f  cmp      x0, x1
0x40000748:  54ffffc1  b.ne     #0x40000740

----------------
IN: main
0x40000740:  f800841f  str      xzr, [x0], #8
0x40000744:  eb01001f  cmp      x0, x1
0x40000748:  54ffffc1  b.ne     #0x40000740

----------------
IN: main
0x4000074c:  d0000014  adrp     x20, #0x40002000
0x40000750:  91000294  add      x20, x20, #0
0x40000754:  b9431a80  ldr      w0, [x20, #0x318]
0x40000758:  7100001f  cmp      w0, #0
0x4000075c:  540001cd  b.le     #0x40000794

----------------
IN: main
0x40000760:  937b7c04  sbfiz    x4, x0, #5, #0x20
0x40000764:  aa1403e0  mov      x0, x20
0x40000768:  8b040284  add      x4, x20, x4
0x4000076c:  d503201f  nop      
0x40000770:  a9518402  ldp      x2, x1, [x0, #0x118]
0x40000774:  91008000  add      x0, x0, #0x20
0x40000778:  f9408803  ldr      x3, [x0, #0x110]
0x4000077c:  d35efc42  lsr      x2, x2, #0x1e
0x40000780:  aa030021  orr      x1, x1, x3
0x40000784:  b2400021  orr      x1, x1, #1
0x40000788:  f8227a61  str      x1, [x19, x2, lsl #3]
0x4000078c:  eb04001f  cmp      x0, x4
0x40000790:  54ffff01  b.ne     #0x40000770

----------------
IN: main
0x40000770:  a9518402  ldp      x2, x1, [x0, #0x118]
0x40000774:  91008000  add      x0, x0, #0x20
0x40000778:  f9408803  ldr      x3, [x0, #0x110]
0x4000077c:  d35efc42  lsr      x2, x2, #0x1e
0x40000780:  aa030021  orr      x1, x1, x3
0x40000784:  b2400021  orr      x1, x1, #1
0x40000788:  f8227a61  str      x1, [x19, x2, lsl #3]
0x4000078c:  eb04001f  cmp      x0, x4
0x40000790:  54ffff01  b.ne     #0x40000770

----------------
IN: main
0x40000794:  d280ab20  movz     x0, #0x559
0x40000798:  f2a00040  movk     x0, #0x2, lsl #16
0x4000079c:  9400043e  bl       #0x40001894

----------------
IN: 
0x40001894:  d51c2140  msr      vtcr_el2, x0

----------------
IN: 
0x40001898:  d65f03c0  ret      

----------------
IN: main
0x400007a0:  aa1303e0  mov      x0, x19
0x400007a4:  9400043a  bl       #0x4000188c

----------------
IN: 
0x4000188c:  d51c2100  msr      vttbr_el2, x0

----------------
IN: 
0x40001890:  d65f03c0  ret      

----------------
IN: main
0x400007a8:  94000443  bl       #0x400018b4

----------------
IN: 
0x400018b4:  d508871f  tlbi     vmalle1

----------------
IN: 
0x400018b8:  d5033f9f  dsb      sy
0x400018bc:  d5033fdf  isb      

----------------
IN: 
0x400018c0:  d65f03c0  ret      

----------------
IN: main
0x400007ac:  b0000001  adrp     x1, #0x40001000
0x400007b0:  912dc021  add      x1, x1, #0xb70
0x400007b4:  52800d20  movz     w0, #0x69
0x400007b8:  d2a12002  movz     x2, #0x900, lsl #16
0x400007bc:  528001a3  movz     w3, #0xd
0x400007c0:  91000421  add      x1, x1, #1
0x400007c4:  7100281f  cmp      w0, #0xa
0x400007c8:  54000041  b.ne     #0x400007d0

----------------
IN: main
0x400007d0:  b9000040  str      w0, [x2]
0x400007d4:  39400020  ldrb     w0, [x1]
0x400007d8:  35ffff40  cbnz     w0, #0x400007c0

----------------
IN: main
0x400007d0:  b9000040  str      w0, [x2]

----------------
IN: main
0x400007d4:  39400020  ldrb     w0, [x1]
0x400007d8:  35ffff40  cbnz     w0, #0x400007c0

----------------
IN: main
0x400007c0:  91000421  add      x1, x1, #1
0x400007c4:  7100281f  cmp      w0, #0xa
0x400007c8:  54000041  b.ne     #0x400007d0

----------------
IN: main
0x400007cc:  b9000043  str      w3, [x2]
0x400007d0:  b9000040  str      w0, [x2]
0x400007d4:  39400020  ldrb     w0, [x1]
0x400007d8:  35ffff40  cbnz     w0, #0x400007c0

----------------
IN: main
0x400007cc:  b9000043  str      w3, [x2]

----------------
IN: main
0x400007dc:  b0000001  adrp     x1, #0x40001000
0x400007e0:  912e4021  add      x1, x1, #0xb90
0x400007e4:  52800d20  movz     w0, #0x69
0x400007e8:  d2a12002  movz     x2, #0x900, lsl #16
0x400007ec:  528001a3  movz     w3, #0xd
0x400007f0:  91000421  add      x1, x1, #1
0x400007f4:  7100281f  cmp      w0, #0xa
0x400007f8:  54000041  b.ne     #0x40000800

----------------
IN: main
0x40000800:  b9000040  str      w0, [x2]
0x40000804:  39400020  ldrb     w0, [x1]
0x40000808:  35ffff40  cbnz     w0, #0x400007f0

----------------
IN: main
0x40000800:  b9000040  str      w0, [x2]

----------------
IN: main
0x40000804:  39400020  ldrb     w0, [x1]
0x40000808:  35ffff40  cbnz     w0, #0x400007f0

----------------
IN: main
0x400007f0:  91000421  add      x1, x1, #1
0x400007f4:  7100281f  cmp      w0, #0xa
0x400007f8:  54000041  b.ne     #0x40000800

----------------
IN: main
0x400007fc:  b9000043  str      w3, [x2]
0x40000800:  b9000040  str      w0, [x2]
0x40000804:  39400020  ldrb     w0, [x1]
0x40000808:  35ffff40  cbnz     w0, #0x400007f0

----------------
IN: main
0x400007fc:  b9000043  str      w3, [x2]

----------------
IN: main
0x4000080c:  91002280  add      x0, x20, #8
0x40000810:  94000442  bl       #0x40001918

----------------
IN: 
0x40001918:  a9bf53f3  stp      x19, x20, [sp, #-0x10]!
0x4000191c:  a9bf5bf5  stp      x21, x22, [sp, #-0x10]!
0x40001920:  a9bf63f7  stp      x23, x24, [sp, #-0x10]!
0x40001924:  a9bf6bf9  stp      x25, x26, [sp, #-0x10]!
0x40001928:  a9bf73fb  stp      x27, x28, [sp, #-0x10]!
0x4000192c:  a9bf7bfd  stp      x29, x30, [sp, #-0x10]!
0x40001930:  aa0003f3  mov      x19, x0
0x40001934:  a9400660  ldp      x0, x1, [x19]
0x40001938:  a9410e62  ldp      x2, x3, [x19, #0x10]
0x4000193c:  a9421664  ldp      x4, x5, [x19, #0x20]
0x40001940:  a9431e66  ldp      x6, x7, [x19, #0x30]
0x40001944:  a9442668  ldp      x8, x9, [x19, #0x40]
0x40001948:  a9452e6a  ldp      x10, x11, [x19, #0x50]
0x4000194c:  a946366c  ldp      x12, x13, [x19, #0x60]
0x40001950:  a9473e6e  ldp      x14, x15, [x19, #0x70]
0x40001954:  a9484670  ldp      x16, x17, [x19, #0x80]
0x40001958:  a9495272  ldp      x18, x20, [x19, #0x90]
0x4000195c:  a94a5a75  ldp      x21, x22, [x19, #0xa0]
0x40001960:  a94b6277  ldp      x23, x24, [x19, #0xb0]
0x40001964:  a94c6a79  ldp      x25, x26, [x19, #0xc0]
0x40001968:  a94d727b  ldp      x27, x28, [x19, #0xd0]
0x4000196c:  a94e7a7d  ldp      x29, x30, [x19, #0xe0]
0x40001970:  f9407e75  ldr      x21, [x19, #0xf8]
0x40001974:  d51c4115  msr      sp_el1, x21

----------------
IN: 
0x40001978:  f9408275  ldr      x21, [x19, #0x100]
0x4000197c:  d51c4035  msr      elr_el2, x21

----------------
IN: 
0x40001980:  f9408675  ldr      x21, [x19, #0x108]
0x40001984:  d51c4015  msr      spsr_el2, x21

----------------
IN: 
0x40001988:  f9404e73  ldr      x19, [x19, #0x98]
0x4000198c:  d69f03e0  eret     

----------------
IN: 
0x00000000:  edfe0dd0  .byte    0xd0, 0x0d, 0xfe, 0xed

----------------
IN: 
0x00000200:  01000000  .byte    0x00, 0x00, 0x00, 0x01

