----------------
IN: 
0x40000000:  d53800a0  mrs      x0, mpidr_el1
0x40000004:  92400400  and      x0, x0, #3
0x40000008:  b4000060  cbz      x0, #0x40000014

----------------
IN: 
0x40000014:  58000161  ldr      x1, #0x40000040
0x40000018:  9100003f  mov      sp, x1
0x4000001c:  58000161  ldr      x1, #0x40000048
0x40000020:  58000182  ldr      x2, #0x40000050
0x40000024:  eb02003f  cmp      x1, x2
0x40000028:  5400004a  b.ge     #0x40000030

----------------
IN: 
0x4000002c:  f800843f  str      xzr, [x1], #8
0x40000030:  9400014c  bl       #0x40000560

----------------
IN: main
0x40000560:  a9be7bfd  stp      x29, x30, [sp, #-0x20]!
0x40000564:  b0000001  adrp     x1, #0x40001000
0x40000568:  91086021  add      x1, x1, #0x218
0x4000056c:  910003fd  mov      x29, sp
0x40000570:  52800140  movz     w0, #0xa
0x40000574:  d2a12002  movz     x2, #0x900, lsl #16
0x40000578:  528001a3  movz     w3, #0xd
0x4000057c:  a90153f3  stp      x19, x20, [sp, #0x10]
0x40000580:  91000421  add      x1, x1, #1
0x40000584:  7100281f  cmp      w0, #0xa
0x40000588:  54000041  b.ne     #0x40000590

----------------
IN: main
0x4000058c:  b9000043  str      w3, [x2]
0x40000590:  b9000040  str      w0, [x2]
0x40000594:  39400020  ldrb     w0, [x1]
0x40000598:  35ffff40  cbnz     w0, #0x40000580

----------------
IN: main
0x4000058c:  b9000043  str      w3, [x2]

----------------
IN: main
0x40000590:  b9000040  str      w0, [x2]
0x40000594:  39400020  ldrb     w0, [x1]
0x40000598:  35ffff40  cbnz     w0, #0x40000580

----------------
IN: main
0x40000590:  b9000040  str      w0, [x2]

----------------
IN: main
0x40000594:  39400020  ldrb     w0, [x1]
0x40000598:  35ffff40  cbnz     w0, #0x40000580

----------------
IN: main
0x40000580:  91000421  add      x1, x1, #1
0x40000584:  7100281f  cmp      w0, #0xa
0x40000588:  54000041  b.ne     #0x40000590

----------------
IN: main
0x4000059c:  9400029a  bl       #0x40001004

----------------
IN: 
0x40001004:  d5384240  mrs      x0, currentel
0x40001008:  d342fc00  lsr      x0, x0, #2
0x4000100c:  d65f03c0  ret      

----------------
IN: main
0x400005a0:  f100081f  cmp      x0, #2
0x400005a4:  54000040  b.eq     #0x400005ac

----------------
IN: main
0x400005ac:  b0000001  adrp     x1, #0x40001000
0x400005b0:  91094021  add      x1, x1, #0x250
0x400005b4:  52800d20  movz     w0, #0x69
0x400005b8:  d2a12002  movz     x2, #0x900, lsl #16
0x400005bc:  528001a3  movz     w3, #0xd
0x400005c0:  91000421  add      x1, x1, #1
0x400005c4:  7100281f  cmp      w0, #0xa
0x400005c8:  54000041  b.ne     #0x400005d0

----------------
IN: main
0x400005d0:  b9000040  str      w0, [x2]
0x400005d4:  39400020  ldrb     w0, [x1]
0x400005d8:  35ffff40  cbnz     w0, #0x400005c0

----------------
IN: main
0x400005d0:  b9000040  str      w0, [x2]

----------------
IN: main
0x400005d4:  39400020  ldrb     w0, [x1]
0x400005d8:  35ffff40  cbnz     w0, #0x400005c0

----------------
IN: main
0x400005c0:  91000421  add      x1, x1, #1
0x400005c4:  7100281f  cmp      w0, #0xa
0x400005c8:  54000041  b.ne     #0x400005d0

----------------
IN: main
0x400005cc:  b9000043  str      w3, [x2]
0x400005d0:  b9000040  str      w0, [x2]
0x400005d4:  39400020  ldrb     w0, [x1]
0x400005d8:  35ffff40  cbnz     w0, #0x400005c0

----------------
IN: main
0x400005cc:  b9000043  str      w3, [x2]

----------------
IN: main
0x400005dc:  90000000  adrp     x0, #0x40000000
0x400005e0:  91200000  add      x0, x0, #0x800
0x400005e4:  94000297  bl       #0x40001040

----------------
IN: 
0x40001040:  d51cc000  msr      vbar_el2, x0

----------------
IN: 
0x40001044:  d65f03c0  ret      

----------------
IN: main
0x400005e8:  320107e0  orr      w0, wzr, #0x80000001
0x400005ec:  94000291  bl       #0x40001030

----------------
IN: 
0x40001030:  d51c1100  msr      hcr_el2, x0

----------------
IN: 
0x40001034:  d65f03c0  ret      

----------------
IN: main
0x400005f0:  d2800000  movz     x0, #0
0x400005f4:  94000291  bl       #0x40001038

----------------
IN: 
0x40001038:  d51c1140  msr      cptr_el2, x0

----------------
IN: 
0x4000103c:  d65f03c0  ret      

----------------
IN: main
0x400005f8:  b0000001  adrp     x1, #0x40001000
0x400005fc:  9109a021  add      x1, x1, #0x268
0x40000600:  52800d20  movz     w0, #0x69
0x40000604:  d2a12002  movz     x2, #0x900, lsl #16
0x40000608:  528001a3  movz     w3, #0xd
0x4000060c:  d503201f  nop      
0x40000610:  91000421  add      x1, x1, #1
0x40000614:  7100281f  cmp      w0, #0xa
0x40000618:  54000041  b.ne     #0x40000620

----------------
IN: main
0x40000620:  b9000040  str      w0, [x2]
0x40000624:  39400020  ldrb     w0, [x1]
0x40000628:  35ffff40  cbnz     w0, #0x40000610

----------------
IN: main
0x40000620:  b9000040  str      w0, [x2]

----------------
IN: main
0x40000624:  39400020  ldrb     w0, [x1]
0x40000628:  35ffff40  cbnz     w0, #0x40000610

----------------
IN: main
0x40000610:  91000421  add      x1, x1, #1
0x40000614:  7100281f  cmp      w0, #0xa
0x40000618:  54000041  b.ne     #0x40000620

----------------
IN: main
0x4000061c:  b9000043  str      w3, [x2]
0x40000620:  b9000040  str      w0, [x2]
0x40000624:  39400020  ldrb     w0, [x1]
0x40000628:  35ffff40  cbnz     w0, #0x40000610

----------------
IN: main
0x4000061c:  b9000043  str      w3, [x2]

----------------
IN: main
0x4000062c:  b0000000  adrp     x0, #0x40001000
0x40000630:  90000021  adrp     x1, #0x40004000
0x40000634:  91000033  add      x19, x1, #0
0x40000638:  3dc0f400  ldr      q0, [x0, #0x3d0]
0x4000063c:  d29fe080  movz     x0, #0xff04
0x40000640:  3d800020  str      q0, [x1]
0x40000644:  94000289  bl       #0x40001068

----------------
IN: 
0x40001068:  d51ca200  msr      mair_el2, x0

----------------
IN: 
0x4000106c:  d65f03c0  ret      

----------------
IN: main
0x40000648:  d286a320  movz     x0, #0x3519
0x4000064c:  f2a00040  movk     x0, #0x2, lsl #16
0x40000650:  94000274  bl       #0x40001020

----------------
IN: 
0x40001020:  d51c2040  msr      tcr_el2, x0

----------------
IN: 
0x40001024:  d65f03c0  ret      

----------------
IN: main
0x40000654:  aa1303e0  mov      x0, x19
0x40000658:  94000274  bl       #0x40001028

----------------
IN: 
0x40001028:  d51c2000  msr      ttbr0_el2, x0

----------------
IN: 
0x4000102c:  d65f03c0  ret      

----------------
IN: main
0x4000065c:  d5033fdf  isb      

----------------
IN: main
0x40000660:  9400026e  bl       #0x40001018

----------------
IN: 
0x40001018:  d53c1000  mrs      x0, sctlr_el2
0x4000101c:  d65f03c0  ret      

----------------
IN: main
0x40000664:  d28200a1  movz     x1, #0x1005
0x40000668:  aa010000  orr      x0, x0, x1
0x4000066c:  94000269  bl       #0x40001010

----------------
IN: 
0x40001010:  d51c1000  msr      sctlr_el2, x0

----------------
IN: 
0x40001014:  d65f03c0  ret      

----------------
IN: main
0x40000670:  d5033fdf  isb      

----------------
IN: main
0x40000674:  b0000001  adrp     x1, #0x40001000
0x40000678:  910a2021  add      x1, x1, #0x288
0x4000067c:  52800d20  movz     w0, #0x69
0x40000680:  d2a12002  movz     x2, #0x900, lsl #16
0x40000684:  528001a3  movz     w3, #0xd
0x40000688:  91000421  add      x1, x1, #1
0x4000068c:  7100281f  cmp      w0, #0xa
0x40000690:  54000041  b.ne     #0x40000698

----------------
IN: main
0x40000698:  b9000040  str      w0, [x2]
0x4000069c:  39400020  ldrb     w0, [x1]
0x400006a0:  35ffff40  cbnz     w0, #0x40000688

----------------
IN: main
0x40000698:  b9000040  str      w0, [x2]

----------------
IN: main
0x4000069c:  39400020  ldrb     w0, [x1]
0x400006a0:  35ffff40  cbnz     w0, #0x40000688

----------------
IN: main
0x40000688:  91000421  add      x1, x1, #1
0x4000068c:  7100281f  cmp      w0, #0xa
0x40000690:  54000041  b.ne     #0x40000698

----------------
IN: main
0x40000694:  b9000043  str      w3, [x2]
0x40000698:  b9000040  str      w0, [x2]
0x4000069c:  39400020  ldrb     w0, [x1]
0x400006a0:  35ffff40  cbnz     w0, #0x40000688

----------------
IN: main
0x40000694:  b9000043  str      w3, [x2]

----------------
IN: main
0x400006a4:  d0000013  adrp     x19, #0x40002000
0x400006a8:  91000273  add      x19, x19, #0
0x400006ac:  b0000001  adrp     x1, #0x40001000
0x400006b0:  910aa021  add      x1, x1, #0x2a8
0x400006b4:  b0000003  adrp     x3, #0x40001000
0x400006b8:  d2a80106  movz     x6, #0x4008, lsl #16
0x400006bc:  9114c063  add      x3, x3, #0x530
0x400006c0:  d28000a5  movz     x5, #0x5
0x400006c4:  52800d20  movz     w0, #0x69
0x400006c8:  d2a12002  movz     x2, #0x900, lsl #16
0x400006cc:  528001a4  movz     w4, #0xd
0x400006d0:  a9100e66  stp      x6, x3, [x19, #0x100]
0x400006d4:  f9008a65  str      x5, [x19, #0x110]
0x400006d8:  91000421  add      x1, x1, #1
0x400006dc:  7100281f  cmp      w0, #0xa
0x400006e0:  54000041  b.ne     #0x400006e8

----------------
IN: main
0x400006e8:  b9000040  str      w0, [x2]
0x400006ec:  39400020  ldrb     w0, [x1]
0x400006f0:  35ffff40  cbnz     w0, #0x400006d8

----------------
IN: main
0x400006e8:  b9000040  str      w0, [x2]

----------------
IN: main
0x400006ec:  39400020  ldrb     w0, [x1]
0x400006f0:  35ffff40  cbnz     w0, #0x400006d8

----------------
IN: main
0x400006d8:  91000421  add      x1, x1, #1
0x400006dc:  7100281f  cmp      w0, #0xa
0x400006e0:  54000041  b.ne     #0x400006e8

----------------
IN: main
0x400006e4:  b9000044  str      w4, [x2]
0x400006e8:  b9000040  str      w0, [x2]
0x400006ec:  39400020  ldrb     w0, [x1]
0x400006f0:  35ffff40  cbnz     w0, #0x400006d8

----------------
IN: main
0x400006e4:  b9000044  str      w4, [x2]

----------------
IN: main
0x400006f4:  b0000001  adrp     x1, #0x40001000
0x400006f8:  910b0021  add      x1, x1, #0x2c0
0x400006fc:  52800d20  movz     w0, #0x69
0x40000700:  d2a12002  movz     x2, #0x900, lsl #16
0x40000704:  528001a3  movz     w3, #0xd
0x40000708:  91000421  add      x1, x1, #1
0x4000070c:  7100281f  cmp      w0, #0xa
0x40000710:  54000041  b.ne     #0x40000718

----------------
IN: main
0x40000718:  b9000040  str      w0, [x2]
0x4000071c:  39400020  ldrb     w0, [x1]
0x40000720:  35ffff40  cbnz     w0, #0x40000708

----------------
IN: main
0x40000718:  b9000040  str      w0, [x2]

----------------
IN: main
0x4000071c:  39400020  ldrb     w0, [x1]
0x40000720:  35ffff40  cbnz     w0, #0x40000708

----------------
IN: main
0x40000708:  91000421  add      x1, x1, #1
0x4000070c:  7100281f  cmp      w0, #0xa
0x40000710:  54000041  b.ne     #0x40000718

----------------
IN: main
0x40000714:  b9000043  str      w3, [x2]
0x40000718:  b9000040  str      w0, [x2]
0x4000071c:  39400020  ldrb     w0, [x1]
0x40000720:  35ffff40  cbnz     w0, #0x40000708

----------------
IN: main
0x40000714:  b9000043  str      w3, [x2]

----------------
IN: main
0x40000724:  b0000000  adrp     x0, #0x40001000
0x40000728:  f0000001  adrp     x1, #0x40003000
0x4000072c:  91000034  add      x20, x1, #0
0x40000730:  3dc0f800  ldr      q0, [x0, #0x3e0]
0x40000734:  d280ab20  movz     x0, #0x559
0x40000738:  f2a00040  movk     x0, #0x2, lsl #16
0x4000073c:  3d800020  str      q0, [x1]
0x40000740:  94000244  bl       #0x40001050

----------------
IN: 
0x40001050:  d51c2140  msr      vtcr_el2, x0

----------------
IN: 
0x40001054:  d65f03c0  ret      

----------------
IN: main
0x40000744:  aa1403e0  mov      x0, x20
0x40000748:  94000240  bl       #0x40001048

----------------
IN: 
0x40001048:  d51c2100  msr      vttbr_el2, x0

----------------
IN: 
0x4000104c:  d65f03c0  ret      

----------------
IN: main
0x4000074c:  94000249  bl       #0x40001070

----------------
IN: 
0x40001070:  d508871f  tlbi     vmalle1

----------------
IN: 
0x40001074:  d5033f9f  dsb      sy
0x40001078:  d5033fdf  isb      

----------------
IN: 
0x4000107c:  d65f03c0  ret      

----------------
IN: main
0x40000750:  b0000001  adrp     x1, #0x40001000
0x40000754:  910b8021  add      x1, x1, #0x2e0
0x40000758:  52800d20  movz     w0, #0x69
0x4000075c:  d2a12002  movz     x2, #0x900, lsl #16
0x40000760:  528001a3  movz     w3, #0xd
0x40000764:  d503201f  nop      
0x40000768:  91000421  add      x1, x1, #1
0x4000076c:  7100281f  cmp      w0, #0xa
0x40000770:  54000041  b.ne     #0x40000778

----------------
IN: main
0x40000778:  b9000040  str      w0, [x2]
0x4000077c:  39400020  ldrb     w0, [x1]
0x40000780:  35ffff40  cbnz     w0, #0x40000768

----------------
IN: main
0x40000778:  b9000040  str      w0, [x2]

----------------
IN: main
0x4000077c:  39400020  ldrb     w0, [x1]
0x40000780:  35ffff40  cbnz     w0, #0x40000768

----------------
IN: main
0x40000768:  91000421  add      x1, x1, #1
0x4000076c:  7100281f  cmp      w0, #0xa
0x40000770:  54000041  b.ne     #0x40000778

----------------
IN: main
0x40000774:  b9000043  str      w3, [x2]
0x40000778:  b9000040  str      w0, [x2]
0x4000077c:  39400020  ldrb     w0, [x1]
0x40000780:  35ffff40  cbnz     w0, #0x40000768

----------------
IN: main
0x40000774:  b9000043  str      w3, [x2]

----------------
IN: main
0x40000784:  b0000001  adrp     x1, #0x40001000
0x40000788:  910c0021  add      x1, x1, #0x300
0x4000078c:  52800d20  movz     w0, #0x69
0x40000790:  d2a12002  movz     x2, #0x900, lsl #16
0x40000794:  528001a3  movz     w3, #0xd
0x40000798:  91000421  add      x1, x1, #1
0x4000079c:  7100281f  cmp      w0, #0xa
0x400007a0:  54000041  b.ne     #0x400007a8

----------------
IN: main
0x400007a8:  b9000040  str      w0, [x2]
0x400007ac:  39400020  ldrb     w0, [x1]
0x400007b0:  35ffff40  cbnz     w0, #0x40000798

----------------
IN: main
0x400007a8:  b9000040  str      w0, [x2]

----------------
IN: main
0x400007ac:  39400020  ldrb     w0, [x1]
0x400007b0:  35ffff40  cbnz     w0, #0x40000798

----------------
IN: main
0x40000798:  91000421  add      x1, x1, #1
0x4000079c:  7100281f  cmp      w0, #0xa
0x400007a0:  54000041  b.ne     #0x400007a8

----------------
IN: main
0x400007a4:  b9000043  str      w3, [x2]
0x400007a8:  b9000040  str      w0, [x2]
0x400007ac:  39400020  ldrb     w0, [x1]
0x400007b0:  35ffff40  cbnz     w0, #0x40000798

----------------
IN: main
0x400007a4:  b9000043  str      w3, [x2]

----------------
IN: main
0x400007b4:  91002260  add      x0, x19, #8
0x400007b8:  94000232  bl       #0x40001080

----------------
IN: 
0x40001080:  a9bf53f3  stp      x19, x20, [sp, #-0x10]!
0x40001084:  a9bf5bf5  stp      x21, x22, [sp, #-0x10]!
0x40001088:  a9bf63f7  stp      x23, x24, [sp, #-0x10]!
0x4000108c:  a9bf6bf9  stp      x25, x26, [sp, #-0x10]!
0x40001090:  a9bf73fb  stp      x27, x28, [sp, #-0x10]!
0x40001094:  a9bf7bfd  stp      x29, x30, [sp, #-0x10]!
0x40001098:  aa0003f3  mov      x19, x0
0x4000109c:  a9400660  ldp      x0, x1, [x19]
0x400010a0:  a9410e62  ldp      x2, x3, [x19, #0x10]
0x400010a4:  a9421664  ldp      x4, x5, [x19, #0x20]
0x400010a8:  a9431e66  ldp      x6, x7, [x19, #0x30]
0x400010ac:  a9442668  ldp      x8, x9, [x19, #0x40]
0x400010b0:  a9452e6a  ldp      x10, x11, [x19, #0x50]
0x400010b4:  a946366c  ldp      x12, x13, [x19, #0x60]
0x400010b8:  a9473e6e  ldp      x14, x15, [x19, #0x70]
0x400010bc:  a9484670  ldp      x16, x17, [x19, #0x80]
0x400010c0:  a9495272  ldp      x18, x20, [x19, #0x90]
0x400010c4:  a94a5a75  ldp      x21, x22, [x19, #0xa0]
0x400010c8:  a94b6277  ldp      x23, x24, [x19, #0xb0]
0x400010cc:  a94c6a79  ldp      x25, x26, [x19, #0xc0]
0x400010d0:  a94d727b  ldp      x27, x28, [x19, #0xd0]
0x400010d4:  a94e7a7d  ldp      x29, x30, [x19, #0xe0]
0x400010d8:  f9407e75  ldr      x21, [x19, #0xf8]
0x400010dc:  d51c4115  msr      sp_el1, x21

----------------
IN: 
0x400010e0:  f9408275  ldr      x21, [x19, #0x100]
0x400010e4:  d51c4035  msr      elr_el2, x21

----------------
IN: 
0x400010e8:  f9408675  ldr      x21, [x19, #0x108]
0x400010ec:  d51c4015  msr      spsr_el2, x21

----------------
IN: 
0x400010f0:  f9404e73  ldr      x19, [x19, #0x98]
0x400010f4:  d69f03e0  eret     

----------------
IN: 
0x40001530:  d2800000  movz     x0, #0
0x40001534:  580000a1  ldr      x1, #0x40001548
0x40001538:  52800922  movz     w2, #0x49
0x4000153c:  39000022  strb     w2, [x1]
0x40001540:  d4000002  hvc      #0

----------------
IN: 
0x40000c00:  d0000013  adrp     x19, #0x40002000
0x40000c04:  91000273  add      x19, x19, #0
0x40000c08:  a9000660  stp      x0, x1, [x19]
0x40000c0c:  a9010e62  stp      x2, x3, [x19, #0x10]
0x40000c10:  a9021664  stp      x4, x5, [x19, #0x20]
0x40000c14:  a9031e66  stp      x6, x7, [x19, #0x30]
0x40000c18:  a9042668  stp      x8, x9, [x19, #0x40]
0x40000c1c:  a9052e6a  stp      x10, x11, [x19, #0x50]
0x40000c20:  a906366c  stp      x12, x13, [x19, #0x60]
0x40000c24:  a9073e6e  stp      x14, x15, [x19, #0x70]
0x40000c28:  a9084670  stp      x16, x17, [x19, #0x80]
0x40000c2c:  a9094e72  stp      x18, x19, [x19, #0x90]
0x40000c30:  a90a5674  stp      x20, x21, [x19, #0xa0]
0x40000c34:  a90b5e76  stp      x22, x23, [x19, #0xb0]
0x40000c38:  a90c6678  stp      x24, x25, [x19, #0xc0]
0x40000c3c:  a90d6e7a  stp      x26, x27, [x19, #0xd0]
0x40000c40:  a90e767c  stp      x28, x29, [x19, #0xe0]
0x40000c44:  f9007a7e  str      x30, [x19, #0xf0]
0x40000c48:  d53c4114  mrs      x20, sp_el1
0x40000c4c:  f9007e74  str      x20, [x19, #0xf8]
0x40000c50:  d53c4034  mrs      x20, elr_el2
0x40000c54:  f9008274  str      x20, [x19, #0x100]
0x40000c58:  d53c4014  mrs      x20, spsr_el2
0x40000c5c:  f9008674  str      x20, [x19, #0x108]
0x40000c60:  aa1303e0  mov      x0, x19
0x40000c64:  97fffd57  bl       #0x400001c0

----------------
IN: handle_trap
0x400001c0:  a9bd7bfd  stp      x29, x30, [sp, #-0x30]!
0x400001c4:  910003fd  mov      x29, sp
0x400001c8:  a90153f3  stp      x19, x20, [sp, #0x10]
0x400001cc:  aa0003f4  mov      x20, x0
0x400001d0:  a9025bf5  stp      x21, x22, [sp, #0x20]
0x400001d4:  940003a1  bl       #0x40001058

----------------
IN: 
0x40001058:  d53c5200  mrs      x0, esr_el2
0x4000105c:  d65f03c0  ret      

----------------
IN: handle_trap
0x400001d8:  b0000002  adrp     x2, #0x40001000
0x400001dc:  d35afc16  lsr      x22, x0, #0x1a
0x400001e0:  9104c042  add      x2, x2, #0x130
0x400001e4:  531a7c13  lsr      w19, w0, #0x1a
0x400001e8:  52800d21  movz     w1, #0x69
0x400001ec:  d2a12003  movz     x3, #0x900, lsl #16
0x400001f0:  528001a4  movz     w4, #0xd
0x400001f4:  d503201f  nop      
0x400001f8:  91000442  add      x2, x2, #1
0x400001fc:  7100283f  cmp      w1, #0xa
0x40000200:  54000041  b.ne     #0x40000208

----------------
IN: handle_trap
0x40000208:  b9000061  str      w1, [x3]
0x4000020c:  39400041  ldrb     w1, [x2]
0x40000210:  35ffff41  cbnz     w1, #0x400001f8

----------------
IN: handle_trap
0x40000208:  b9000061  str      w1, [x3]

----------------
IN: handle_trap
0x4000020c:  39400041  ldrb     w1, [x2]
0x40000210:  35ffff41  cbnz     w1, #0x400001f8

----------------
IN: handle_trap
0x400001f8:  91000442  add      x2, x2, #1
0x400001fc:  7100283f  cmp      w1, #0xa
0x40000200:  54000041  b.ne     #0x40000208

----------------
IN: handle_trap
0x40000204:  b9000064  str      w4, [x3]
0x40000208:  b9000061  str      w1, [x3]
0x4000020c:  39400041  ldrb     w1, [x2]
0x40000210:  35ffff41  cbnz     w1, #0x400001f8

----------------
IN: handle_trap
0x40000204:  b9000064  str      w4, [x3]

----------------
IN: handle_trap
0x40000214:  b0000002  adrp     x2, #0x40001000
0x40000218:  91050042  add      x2, x2, #0x140
0x4000021c:  52800401  movz     w1, #0x20
0x40000220:  d2a12003  movz     x3, #0x900, lsl #16
0x40000224:  528001a4  movz     w4, #0xd
0x40000228:  91000442  add      x2, x2, #1
0x4000022c:  7100283f  cmp      w1, #0xa
0x40000230:  54000041  b.ne     #0x40000238

----------------
IN: handle_trap
0x40000238:  b9000061  str      w1, [x3]
0x4000023c:  39400041  ldrb     w1, [x2]
0x40000240:  35ffff41  cbnz     w1, #0x40000228

----------------
IN: handle_trap
0x40000238:  b9000061  str      w1, [x3]

----------------
IN: handle_trap
0x4000023c:  39400041  ldrb     w1, [x2]
0x40000240:  35ffff41  cbnz     w1, #0x40000228

----------------
IN: handle_trap
0x40000228:  91000442  add      x2, x2, #1
0x4000022c:  7100283f  cmp      w1, #0xa
0x40000230:  54000041  b.ne     #0x40000238

----------------
IN: handle_trap
0x40000244:  97ffff87  bl       #0x40000060

----------------
IN: uart_put_hex
0x40000060:  b0000002  adrp     x2, #0x40001000
0x40000064:  91040042  add      x2, x2, #0x100
0x40000068:  52800601  movz     w1, #0x30
0x4000006c:  d2a12003  movz     x3, #0x900, lsl #16
0x40000070:  528001a4  movz     w4, #0xd
0x40000074:  d503201f  nop      
0x40000078:  91000442  add      x2, x2, #1
0x4000007c:  7100283f  cmp      w1, #0xa
0x40000080:  54000041  b.ne     #0x40000088

----------------
IN: uart_put_hex
0x40000088:  b9000061  str      w1, [x3]
0x4000008c:  39400041  ldrb     w1, [x2]
0x40000090:  35ffff41  cbnz     w1, #0x40000078

----------------
IN: uart_put_hex
0x40000088:  b9000061  str      w1, [x3]

----------------
IN: uart_put_hex
0x4000008c:  39400041  ldrb     w1, [x2]
0x40000090:  35ffff41  cbnz     w1, #0x40000078

----------------
IN: uart_put_hex
0x40000078:  91000442  add      x2, x2, #1
0x4000007c:  7100283f  cmp      w1, #0xa
0x40000080:  54000041  b.ne     #0x40000088

----------------
IN: uart_put_hex
0x40000094:  b0000004  adrp     x4, #0x40001000
0x40000098:  910fc084  add      x4, x4, #0x3f0
0x4000009c:  52800781  movz     w1, #0x3c
0x400000a0:  d2a12003  movz     x3, #0x900, lsl #16
0x400000a4:  528001a5  movz     w5, #0xd
0x400000a8:  9ac12402  lsr      x2, x0, x1
0x400000ac:  92400c42  and      x2, x2, #0xf
0x400000b0:  51001021  sub      w1, w1, #4
0x400000b4:  38626882  ldrb     w2, [x4, x2]
0x400000b8:  7100285f  cmp      w2, #0xa
0x400000bc:  54000041  b.ne     #0x400000c4

----------------
IN: uart_put_hex
0x400000c4:  b9000062  str      w2, [x3]
0x400000c8:  3100103f  cmn      w1, #4
0x400000cc:  54fffee1  b.ne     #0x400000a8

----------------
IN: uart_put_hex
0x400000c4:  b9000062  str      w2, [x3]

----------------
IN: uart_put_hex
0x400000c8:  3100103f  cmn      w1, #4
0x400000cc:  54fffee1  b.ne     #0x400000a8

----------------
IN: uart_put_hex
0x400000a8:  9ac12402  lsr      x2, x0, x1
0x400000ac:  92400c42  and      x2, x2, #0xf
0x400000b0:  51001021  sub      w1, w1, #4
0x400000b4:  38626882  ldrb     w2, [x4, x2]
0x400000b8:  7100285f  cmp      w2, #0xa
0x400000bc:  54000041  b.ne     #0x400000c4

----------------
IN: uart_put_hex
0x400000d0:  d65f03c0  ret      

----------------
IN: handle_trap
0x40000248:  b0000015  adrp     x21, #0x40001000
0x4000024c:  910542b5  add      x21, x21, #0x150
0x40000250:  52800ba1  movz     w1, #0x5d
0x40000254:  aa1503e2  mov      x2, x21
0x40000258:  d2a12003  movz     x3, #0x900, lsl #16
0x4000025c:  528001a4  movz     w4, #0xd
0x40000260:  91000442  add      x2, x2, #1
0x40000264:  7100283f  cmp      w1, #0xa
0x40000268:  54000041  b.ne     #0x40000270

----------------
IN: handle_trap
0x40000270:  b9000061  str      w1, [x3]
0x40000274:  39400041  ldrb     w1, [x2]
0x40000278:  35ffff41  cbnz     w1, #0x40000260

----------------
IN: handle_trap
0x40000270:  b9000061  str      w1, [x3]

----------------
IN: handle_trap
0x40000274:  39400041  ldrb     w1, [x2]
0x40000278:  35ffff41  cbnz     w1, #0x40000260

----------------
IN: handle_trap
0x40000260:  91000442  add      x2, x2, #1
0x40000264:  7100283f  cmp      w1, #0xa
0x40000268:  54000041  b.ne     #0x40000270

----------------
IN: handle_trap
0x4000026c:  b9000064  str      w4, [x3]
0x40000270:  b9000061  str      w1, [x3]
0x40000274:  39400041  ldrb     w1, [x2]
0x40000278:  35ffff41  cbnz     w1, #0x40000260

----------------
IN: handle_trap
0x4000026c:  b9000064  str      w4, [x3]

----------------
IN: handle_trap
0x4000027c:  12006007  and      w7, w0, #0x1ffffff
0x40000280:  b0000000  adrp     x0, #0x40001000
0x40000284:  91056000  add      x0, x0, #0x158
0x40000288:  52800401  movz     w1, #0x20
0x4000028c:  d2a12002  movz     x2, #0x900, lsl #16
0x40000290:  528001a3  movz     w3, #0xd
0x40000294:  d503201f  nop      
0x40000298:  91000400  add      x0, x0, #1
0x4000029c:  7100283f  cmp      w1, #0xa
0x400002a0:  54000041  b.ne     #0x400002a8

----------------
IN: handle_trap
0x400002a8:  b9000041  str      w1, [x2]
0x400002ac:  39400001  ldrb     w1, [x0]
0x400002b0:  35ffff41  cbnz     w1, #0x40000298

----------------
IN: handle_trap
0x400002a8:  b9000041  str      w1, [x2]

----------------
IN: handle_trap
0x400002ac:  39400001  ldrb     w1, [x0]
0x400002b0:  35ffff41  cbnz     w1, #0x40000298

----------------
IN: handle_trap
0x40000298:  91000400  add      x0, x0, #1
0x4000029c:  7100283f  cmp      w1, #0xa
0x400002a0:  54000041  b.ne     #0x400002a8

----------------
IN: handle_trap
0x400002b4:  7100927f  cmp      w19, #0x24
0x400002b8:  54000a28  b.hi     #0x400003fc

----------------
IN: handle_trap
0x400002bc:  b0000001  adrp     x1, #0x40001000
0x400002c0:  910fc021  add      x1, x1, #0x3f0
0x400002c4:  91006021  add      x1, x1, #0x18
0x400002c8:  2a1303e0  mov      w0, w19
0x400002cc:  f8607822  ldr      x2, [x1, x0, lsl #3]
0x400002d0:  39400041  ldrb     w1, [x2]
0x400002d4:  34000141  cbz      w1, #0x400002fc

----------------
IN: handle_trap
0x400002d8:  d2a12003  movz     x3, #0x900, lsl #16
0x400002dc:  528001a4  movz     w4, #0xd
0x400002e0:  91000442  add      x2, x2, #1
0x400002e4:  7100283f  cmp      w1, #0xa
0x400002e8:  54000041  b.ne     #0x400002f0

----------------
IN: handle_trap
0x400002f0:  b9000061  str      w1, [x3]
0x400002f4:  39400041  ldrb     w1, [x2]
0x400002f8:  35ffff41  cbnz     w1, #0x400002e0

----------------
IN: handle_trap
0x400002f0:  b9000061  str      w1, [x3]

----------------
IN: handle_trap
0x400002f4:  39400041  ldrb     w1, [x2]
0x400002f8:  35ffff41  cbnz     w1, #0x400002e0

----------------
IN: handle_trap
0x400002e0:  91000442  add      x2, x2, #1
0x400002e4:  7100283f  cmp      w1, #0xa
0x400002e8:  54000041  b.ne     #0x400002f0

----------------
IN: handle_trap
0x400002fc:  b0000002  adrp     x2, #0x40001000
0x40000300:  91060042  add      x2, x2, #0x180
0x40000304:  52800141  movz     w1, #0xa
0x40000308:  d2a12003  movz     x3, #0x900, lsl #16
0x4000030c:  528001a4  movz     w4, #0xd
0x40000310:  91000442  add      x2, x2, #1
0x40000314:  7100283f  cmp      w1, #0xa
0x40000318:  54000041  b.ne     #0x40000320

----------------
IN: handle_trap
0x4000031c:  b9000064  str      w4, [x3]
0x40000320:  b9000061  str      w1, [x3]
0x40000324:  39400041  ldrb     w1, [x2]
0x40000328:  35ffff41  cbnz     w1, #0x40000310

----------------
IN: handle_trap
0x4000031c:  b9000064  str      w4, [x3]

----------------
IN: handle_trap
0x40000320:  b9000061  str      w1, [x3]
0x40000324:  39400041  ldrb     w1, [x2]
0x40000328:  35ffff41  cbnz     w1, #0x40000310

----------------
IN: handle_trap
0x40000320:  b9000061  str      w1, [x3]

----------------
IN: handle_trap
0x40000324:  39400041  ldrb     w1, [x2]
0x40000328:  35ffff41  cbnz     w1, #0x40000310

----------------
IN: handle_trap
0x40000310:  91000442  add      x2, x2, #1
0x40000314:  7100283f  cmp      w1, #0xa
0x40000318:  54000041  b.ne     #0x40000320

----------------
IN: handle_trap
0x4000032c:  97ffff4d  bl       #0x40000060

----------------
IN: handle_trap
0x40000330:  b0000000  adrp     x0, #0x40001000
0x40000334:  91064000  add      x0, x0, #0x190
0x40000338:  52800ba1  movz     w1, #0x5d
0x4000033c:  d2a12002  movz     x2, #0x900, lsl #16
0x40000340:  528001a3  movz     w3, #0xd
0x40000344:  d503201f  nop      
0x40000348:  91000400  add      x0, x0, #1
0x4000034c:  7100283f  cmp      w1, #0xa
0x40000350:  54000041  b.ne     #0x40000358

----------------
IN: handle_trap
0x40000358:  b9000041  str      w1, [x2]
0x4000035c:  39400001  ldrb     w1, [x0]
0x40000360:  35ffff41  cbnz     w1, #0x40000348

----------------
IN: handle_trap
0x40000358:  b9000041  str      w1, [x2]

----------------
IN: handle_trap
0x4000035c:  39400001  ldrb     w1, [x0]
0x40000360:  35ffff41  cbnz     w1, #0x40000348

----------------
IN: handle_trap
0x40000348:  91000400  add      x0, x0, #1
0x4000034c:  7100283f  cmp      w1, #0xa
0x40000350:  54000041  b.ne     #0x40000358

----------------
IN: handle_trap
0x40000354:  b9000043  str      w3, [x2]
0x40000358:  b9000041  str      w1, [x2]
0x4000035c:  39400001  ldrb     w1, [x0]
0x40000360:  35ffff41  cbnz     w1, #0x40000348

----------------
IN: handle_trap
0x40000354:  b9000043  str      w3, [x2]

----------------
IN: handle_trap
0x40000364:  924060e0  and      x0, x7, #0x1ffffff
0x40000368:  97ffff3e  bl       #0x40000060

----------------
IN: handle_trap
0x4000036c:  aa1503e0  mov      x0, x21
0x40000370:  52800ba1  movz     w1, #0x5d
0x40000374:  d2a12002  movz     x2, #0x900, lsl #16
0x40000378:  528001a3  movz     w3, #0xd
0x4000037c:  d503201f  nop      
0x40000380:  91000400  add      x0, x0, #1
0x40000384:  7100283f  cmp      w1, #0xa
0x40000388:  54000041  b.ne     #0x40000390

----------------
IN: handle_trap
0x40000390:  b9000041  str      w1, [x2]
0x40000394:  39400001  ldrb     w1, [x0]
0x40000398:  35ffff41  cbnz     w1, #0x40000380

----------------
IN: handle_trap
0x40000390:  b9000041  str      w1, [x2]

----------------
IN: handle_trap
0x40000394:  39400001  ldrb     w1, [x0]
0x40000398:  35ffff41  cbnz     w1, #0x40000380

----------------
IN: handle_trap
0x40000380:  91000400  add      x0, x0, #1
0x40000384:  7100283f  cmp      w1, #0xa
0x40000388:  54000041  b.ne     #0x40000390

----------------
IN: handle_trap
0x4000038c:  b9000043  str      w3, [x2]
0x40000390:  b9000041  str      w1, [x2]
0x40000394:  39400001  ldrb     w1, [x0]
0x40000398:  35ffff41  cbnz     w1, #0x40000380

----------------
IN: handle_trap
0x4000038c:  b9000043  str      w3, [x2]

----------------
IN: handle_trap
0x4000039c:  52800761  movz     w1, #0x3b
0x400003a0:  0a160036  and      w22, w1, w22
0x400003a4:  710082df  cmp      w22, #0x20
0x400003a8:  54000340  b.eq     #0x40000410

----------------
IN: handle_trap
0x40000410:  94000314  bl       #0x40001060

----------------
IN: 
0x40001060:  d53c6000  mrs      x0, far_el2
0x40001064:  d65f03c0  ret      

----------------
IN: handle_trap
0x40000414:  b0000002  adrp     x2, #0x40001000
0x40000418:  2a1603e1  mov      w1, w22
0x4000041c:  91068042  add      x2, x2, #0x1a0
0x40000420:  d2a12003  movz     x3, #0x900, lsl #16
0x40000424:  528001a4  movz     w4, #0xd
0x40000428:  91000442  add      x2, x2, #1
0x4000042c:  7100283f  cmp      w1, #0xa
0x40000430:  54000041  b.ne     #0x40000438

----------------
IN: handle_trap
0x40000438:  b9000061  str      w1, [x3]
0x4000043c:  39400041  ldrb     w1, [x2]
0x40000440:  35ffff41  cbnz     w1, #0x40000428

----------------
IN: handle_trap
0x40000438:  b9000061  str      w1, [x3]

----------------
IN: handle_trap
0x4000043c:  39400041  ldrb     w1, [x2]
0x40000440:  35ffff41  cbnz     w1, #0x40000428

----------------
IN: handle_trap
0x40000428:  91000442  add      x2, x2, #1
0x4000042c:  7100283f  cmp      w1, #0xa
0x40000430:  54000041  b.ne     #0x40000438

----------------
IN: handle_trap
0x40000444:  97ffff07  bl       #0x40000060

----------------
IN: handle_trap
0x40000448:  d2a12016  movz     x22, #0x900, lsl #16
0x4000044c:  52800ba0  movz     w0, #0x5d
0x40000450:  528001a1  movz     w1, #0xd
0x40000454:  d503201f  nop      
0x40000458:  910006b5  add      x21, x21, #1
0x4000045c:  7100281f  cmp      w0, #0xa
0x40000460:  54000041  b.ne     #0x40000468

----------------
IN: handle_trap
0x40000468:  b90002c0  str      w0, [x22]
0x4000046c:  394002a0  ldrb     w0, [x21]
0x40000470:  35ffff40  cbnz     w0, #0x40000458

----------------
IN: handle_trap
0x40000468:  b90002c0  str      w0, [x22]

----------------
IN: handle_trap
0x4000046c:  394002a0  ldrb     w0, [x21]
0x40000470:  35ffff40  cbnz     w0, #0x40000458

----------------
IN: handle_trap
0x40000458:  910006b5  add      x21, x21, #1
0x4000045c:  7100281f  cmp      w0, #0xa
0x40000460:  54000041  b.ne     #0x40000468

----------------
IN: handle_trap
0x40000464:  b90002c1  str      w1, [x22]
0x40000468:  b90002c0  str      w0, [x22]
0x4000046c:  394002a0  ldrb     w0, [x21]
0x40000470:  35ffff40  cbnz     w0, #0x40000458

----------------
IN: handle_trap
0x40000464:  b90002c1  str      w1, [x22]

----------------
IN: handle_trap
0x40000474:  7100827f  cmp      w19, #0x20
0x40000478:  54000261  b.ne     #0x400004c4

----------------
IN: handle_trap
0x400004c4:  940002e7  bl       #0x40001060

----------------
IN: handle_trap
0x400004c8:  eb0002df  cmp      x22, x0
0x400004cc:  54fff781  b.ne     #0x400003bc

----------------
IN: handle_trap
0x400004d0:  a9425bf5  ldp      x21, x22, [sp, #0x20]
0x400004d4:  aa1403e0  mov      x0, x20
0x400004d8:  a94153f3  ldp      x19, x20, [sp, #0x10]
0x400004dc:  a8c37bfd  ldp      x29, x30, [sp], #0x30
0x400004e0:  17fffefd  b        #0x400000d4

----------------
IN: handle_mmio
0x400000d4:  a9be7bfd  stp      x29, x30, [sp, #-0x20]!
0x400000d8:  910003fd  mov      x29, sp
0x400000dc:  a90153f3  stp      x19, x20, [sp, #0x10]
0x400000e0:  aa0003f3  mov      x19, x0
0x400000e4:  940003dd  bl       #0x40001058

----------------
IN: handle_mmio
0x400000e8:  aa0003f4  mov      x20, x0
0x400000ec:  940003dd  bl       #0x40001060

----------------
IN: handle_mmio
0x400000f0:  d2a12006  movz     x6, #0x900, lsl #16
0x400000f4:  eb06001f  cmp      x0, x6
0x400000f8:  54000320  b.eq     #0x4000015c

----------------
IN: handle_mmio
0x4000015c:  53052681  ubfx     w1, w20, #5, #5
0x40000160:  2a0103e1  mov      w1, w1
0x40000164:  363001f4  tbz      w20, #6, #0x400001a0

----------------
IN: handle_mmio
0x40000168:  f8617a61  ldr      x1, [x19, x1, lsl #3]
0x4000016c:  12001c21  and      w1, w1, #0xff
0x40000170:  7100283f  cmp      w1, #0xa
0x40000174:  54000061  b.ne     #0x40000180

----------------
IN: handle_mmio
0x40000180:  d2a12000  movz     x0, #0x900, lsl #16
0x40000184:  b9000001  str      w1, [x0]
0x40000188:  f9408261  ldr      x1, [x19, #0x100]
0x4000018c:  91001021  add      x1, x1, #4
0x40000190:  f9008261  str      x1, [x19, #0x100]
0x40000194:  a94153f3  ldp      x19, x20, [sp, #0x10]
0x40000198:  a8c27bfd  ldp      x29, x30, [sp], #0x20
0x4000019c:  d65f03c0  ret      

----------------
IN: handle_mmio
0x40000184:  b9000001  str      w1, [x0]

----------------
IN: handle_mmio
0x40000188:  f9408261  ldr      x1, [x19, #0x100]
0x4000018c:  91001021  add      x1, x1, #4
0x40000190:  f9008261  str      x1, [x19, #0x100]
0x40000194:  a94153f3  ldp      x19, x20, [sp, #0x10]
0x40000198:  a8c27bfd  ldp      x29, x30, [sp], #0x20
0x4000019c:  d65f03c0  ret      

----------------
IN: 
0x40000c68:  a9400660  ldp      x0, x1, [x19]
0x40000c6c:  a9410e62  ldp      x2, x3, [x19, #0x10]
0x40000c70:  a9421664  ldp      x4, x5, [x19, #0x20]
0x40000c74:  a9431e66  ldp      x6, x7, [x19, #0x30]
0x40000c78:  a9442668  ldp      x8, x9, [x19, #0x40]
0x40000c7c:  a9452e6a  ldp      x10, x11, [x19, #0x50]
0x40000c80:  a946366c  ldp      x12, x13, [x19, #0x60]
0x40000c84:  a9473e6e  ldp      x14, x15, [x19, #0x70]
0x40000c88:  a9484670  ldp      x16, x17, [x19, #0x80]
0x40000c8c:  a9494e72  ldp      x18, x19, [x19, #0x90]
0x40000c90:  a94a5674  ldp      x20, x21, [x19, #0xa0]
0x40000c94:  a94b5e76  ldp      x22, x23, [x19, #0xb0]
0x40000c98:  a94c6678  ldp      x24, x25, [x19, #0xc0]
0x40000c9c:  a94d6e7a  ldp      x26, x27, [x19, #0xd0]
0x40000ca0:  a94e767c  ldp      x28, x29, [x19, #0xe0]
0x40000ca4:  f9407a7e  ldr      x30, [x19, #0xf0]
0x40000ca8:  f9407e74  ldr      x20, [x19, #0xf8]
0x40000cac:  d51c4114  msr      sp_el1, x20

----------------
IN: 
0x40000cb0:  f9408274  ldr      x20, [x19, #0x100]
0x40000cb4:  d51c4034  msr      elr_el2, x20

----------------
IN: 
0x40000cb8:  f9408674  ldr      x20, [x19, #0x108]
0x40000cbc:  d51c4014  msr      spsr_el2, x20

----------------
IN: 
0x40000cc0:  d69f03e0  eret     

----------------
IN: 
0x40001540:  d4000002  hvc      #0

----------------
IN: handle_trap
0x400003ac:  71005a7f  cmp      w19, #0x16
0x400003b0:  540009a0  b.eq     #0x400004e4

----------------
IN: handle_trap
0x400004e4:  b0000001  adrp     x1, #0x40001000
0x400004e8:  9106c021  add      x1, x1, #0x1b0
0x400004ec:  52800d20  movz     w0, #0x69
0x400004f0:  d2a12002  movz     x2, #0x900, lsl #16
0x400004f4:  528001a3  movz     w3, #0xd
0x400004f8:  91000421  add      x1, x1, #1
0x400004fc:  7100281f  cmp      w0, #0xa
0x40000500:  54000041  b.ne     #0x40000508

----------------
IN: handle_trap
0x40000508:  b9000040  str      w0, [x2]
0x4000050c:  39400020  ldrb     w0, [x1]
0x40000510:  35ffff40  cbnz     w0, #0x400004f8

----------------
IN: handle_trap
0x40000508:  b9000040  str      w0, [x2]

----------------
IN: handle_trap
0x4000050c:  39400020  ldrb     w0, [x1]
0x40000510:  35ffff40  cbnz     w0, #0x400004f8

----------------
IN: handle_trap
0x400004f8:  91000421  add      x1, x1, #1
0x400004fc:  7100281f  cmp      w0, #0xa
0x40000500:  54000041  b.ne     #0x40000508

----------------
IN: handle_trap
0x40000504:  b9000043  str      w3, [x2]
0x40000508:  b9000040  str      w0, [x2]
0x4000050c:  39400020  ldrb     w0, [x1]
0x40000510:  35ffff40  cbnz     w0, #0x400004f8

----------------
IN: handle_trap
0x40000504:  b9000043  str      w3, [x2]

----------------
IN: handle_trap
0x40000514:  f9408280  ldr      x0, [x20, #0x100]
0x40000518:  a9425bf5  ldp      x21, x22, [sp, #0x20]
0x4000051c:  91001000  add      x0, x0, #4
0x40000520:  f9008280  str      x0, [x20, #0x100]
0x40000524:  a94153f3  ldp      x19, x20, [sp, #0x10]
0x40000528:  a8c37bfd  ldp      x29, x30, [sp], #0x30
0x4000052c:  d65f03c0  ret      

----------------
IN: 
0x40001548:  09000000  .byte    0x00, 0x00, 0x00, 0x09

----------------
IN: handle_trap
0x4000047c:  aa1403e0  mov      x0, x20
0x40000480:  97ffff15  bl       #0x400000d4

----------------
IN: handle_mmio
0x400000fc:  b0000002  adrp     x2, #0x40001000
0x40000100:  91042042  add      x2, x2, #0x108
0x40000104:  52800d21  movz     w1, #0x69
0x40000108:  528001a3  movz     w3, #0xd
0x4000010c:  d503201f  nop      
0x40000110:  91000442  add      x2, x2, #1
0x40000114:  7100283f  cmp      w1, #0xa
0x40000118:  54000041  b.ne     #0x40000120

----------------
IN: handle_mmio
0x40000120:  b90000c1  str      w1, [x6]
0x40000124:  39400041  ldrb     w1, [x2]
0x40000128:  35ffff41  cbnz     w1, #0x40000110

----------------
IN: handle_mmio
0x40000120:  b90000c1  str      w1, [x6]

----------------
IN: handle_mmio
0x40000124:  39400041  ldrb     w1, [x2]
0x40000128:  35ffff41  cbnz     w1, #0x40000110

----------------
IN: handle_mmio
0x40000110:  91000442  add      x2, x2, #1
0x40000114:  7100283f  cmp      w1, #0xa
0x40000118:  54000041  b.ne     #0x40000120

----------------
IN: handle_mmio
0x4000012c:  97ffffcd  bl       #0x40000060

----------------
IN: handle_mmio
0x40000130:  528001a1  movz     w1, #0xd
0x40000134:  b90000c1  str      w1, [x6]
0x40000138:  52800141  movz     w1, #0xa
0x4000013c:  b90000c1  str      w1, [x6]
0x40000140:  97ffffbd  bl       #0x40000034

----------------
IN: handle_mmio
0x40000134:  b90000c1  str      w1, [x6]

----------------
IN: handle_mmio
0x40000138:  52800141  movz     w1, #0xa
0x4000013c:  b90000c1  str      w1, [x6]
0x40000140:  97ffffbd  bl       #0x40000034

----------------
IN: handle_mmio
0x4000013c:  b90000c1  str      w1, [x6]

----------------
IN: handle_mmio
0x40000140:  97ffffbd  bl       #0x40000034

----------------
IN: 
0x40000034:  d503207f  wfi      

