----------------
IN: 
0x40000000:  d53800a0  mrs      x0, mpidr_el1
0x40000004:  92400400  and      x0, x0, #3
0x40000008:  b4000060  cbz      x0, #0x40000014

----------------
IN: 
0x40000014:  58000161  ldr      x1, #0x40000040
0x40000018:  9100003f  mov      sp, x1
0x4000001c:  58000161  ldr      x1, #0x40000048
0x40000020:  58000182  ldr      x2, #0x40000050
0x40000024:  eb02003f  cmp      x1, x2
0x40000028:  5400004a  b.ge     #0x40000030

----------------
IN: 
0x4000002c:  f800843f  str      xzr, [x1], #8
0x40000030:  94000184  bl       #0x40000640

----------------
IN: main
0x40000640:  a9b97bfd  stp      x29, x30, [sp, #-0x70]!
0x40000644:  b0000001  adrp     x1, #0x40001000
0x40000648:  912b8021  add      x1, x1, #0xae0
0x4000064c:  910003fd  mov      x29, sp
0x40000650:  52800140  movz     w0, #0xa
0x40000654:  d2a12002  movz     x2, #0x900, lsl #16
0x40000658:  528001a3  movz     w3, #0xd
0x4000065c:  a90153f3  stp      x19, x20, [sp, #0x10]
0x40000660:  a90363f7  stp      x23, x24, [sp, #0x30]
0x40000664:  d503201f  nop      
0x40000668:  91000421  add      x1, x1, #1
0x4000066c:  7100281f  cmp      w0, #0xa
0x40000670:  54000041  b.ne     #0x40000678

----------------
IN: main
0x40000674:  b9000043  str      w3, [x2]
0x40000678:  b9000040  str      w0, [x2]
0x4000067c:  39400020  ldrb     w0, [x1]
0x40000680:  35ffff40  cbnz     w0, #0x40000668

----------------
IN: main
0x40000674:  b9000043  str      w3, [x2]

----------------
IN: main
0x40000678:  b9000040  str      w0, [x2]
0x4000067c:  39400020  ldrb     w0, [x1]
0x40000680:  35ffff40  cbnz     w0, #0x40000668

----------------
IN: main
0x40000678:  b9000040  str      w0, [x2]

----------------
IN: main
0x4000067c:  39400020  ldrb     w0, [x1]
0x40000680:  35ffff40  cbnz     w0, #0x40000668

----------------
IN: main
0x40000668:  91000421  add      x1, x1, #1
0x4000066c:  7100281f  cmp      w0, #0xa
0x40000670:  54000041  b.ne     #0x40000678

----------------
IN: main
0x40000684:  940000d3  bl       #0x400009d0

----------------
IN: palloc_init
0x400009d0:  90000022  adrp     x2, #0x40004000
0x400009d4:  91002042  add      x2, x2, #8
0x400009d8:  91400440  add      x0, x2, #1, lsl #12
0x400009dc:  90000023  adrp     x3, #0x40004000
0x400009e0:  9274cc00  and      x0, x0, #0xfffffffffffff000
0x400009e4:  f2402c5f  tst      x2, #0xfff
0x400009e8:  9a800042  csel     x2, x2, x0, eq
0x400009ec:  b0000001  adrp     x1, #0x40001000
0x400009f0:  91326021  add      x1, x1, #0xc98
0x400009f4:  f9000062  str      x2, [x3]
0x400009f8:  52800d20  movz     w0, #0x69
0x400009fc:  d2a12002  movz     x2, #0x900, lsl #16
0x40000a00:  528001a3  movz     w3, #0xd
0x40000a04:  d503201f  nop      
0x40000a08:  91000421  add      x1, x1, #1
0x40000a0c:  7100281f  cmp      w0, #0xa
0x40000a10:  54000041  b.ne     #0x40000a18

----------------
IN: palloc_init
0x40000a18:  b9000040  str      w0, [x2]
0x40000a1c:  39400020  ldrb     w0, [x1]
0x40000a20:  35ffff40  cbnz     w0, #0x40000a08

----------------
IN: palloc_init
0x40000a18:  b9000040  str      w0, [x2]

----------------
IN: palloc_init
0x40000a1c:  39400020  ldrb     w0, [x1]
0x40000a20:  35ffff40  cbnz     w0, #0x40000a08

----------------
IN: palloc_init
0x40000a08:  91000421  add      x1, x1, #1
0x40000a0c:  7100281f  cmp      w0, #0xa
0x40000a10:  54000041  b.ne     #0x40000a18

----------------
IN: palloc_init
0x40000a14:  b9000043  str      w3, [x2]
0x40000a18:  b9000040  str      w0, [x2]
0x40000a1c:  39400020  ldrb     w0, [x1]
0x40000a20:  35ffff40  cbnz     w0, #0x40000a08

----------------
IN: palloc_init
0x40000a14:  b9000043  str      w3, [x2]

----------------
IN: palloc_init
0x40000a24:  d65f03c0  ret      

----------------
IN: main
0x40000688:  94000470  bl       #0x40001848

----------------
IN: 
0x40001848:  d5384240  mrs      x0, currentel
0x4000184c:  d342fc00  lsr      x0, x0, #2
0x40001850:  d65f03c0  ret      

----------------
IN: main
0x4000068c:  f100081f  cmp      x0, #2
0x40000690:  54000040  b.eq     #0x40000698

----------------
IN: main
0x40000698:  b0000001  adrp     x1, #0x40001000
0x4000069c:  912c6021  add      x1, x1, #0xb18
0x400006a0:  52800d20  movz     w0, #0x69
0x400006a4:  d2a12002  movz     x2, #0x900, lsl #16
0x400006a8:  528001a3  movz     w3, #0xd
0x400006ac:  d503201f  nop      
0x400006b0:  91000421  add      x1, x1, #1
0x400006b4:  7100281f  cmp      w0, #0xa
0x400006b8:  54000041  b.ne     #0x400006c0

----------------
IN: main
0x400006c0:  b9000040  str      w0, [x2]
0x400006c4:  39400020  ldrb     w0, [x1]
0x400006c8:  35ffff40  cbnz     w0, #0x400006b0

----------------
IN: main
0x400006c0:  b9000040  str      w0, [x2]

----------------
IN: main
0x400006c4:  39400020  ldrb     w0, [x1]
0x400006c8:  35ffff40  cbnz     w0, #0x400006b0

----------------
IN: main
0x400006b0:  91000421  add      x1, x1, #1
0x400006b4:  7100281f  cmp      w0, #0xa
0x400006b8:  54000041  b.ne     #0x400006c0

----------------
IN: main
0x400006bc:  b9000043  str      w3, [x2]
0x400006c0:  b9000040  str      w0, [x2]
0x400006c4:  39400020  ldrb     w0, [x1]
0x400006c8:  35ffff40  cbnz     w0, #0x400006b0

----------------
IN: main
0x400006bc:  b9000043  str      w3, [x2]

----------------
IN: main
0x400006cc:  b0000000  adrp     x0, #0x40001000
0x400006d0:  91000000  add      x0, x0, #0
0x400006d4:  9400046c  bl       #0x40001884

----------------
IN: 
0x40001884:  d51cc000  msr      vbar_el2, x0

----------------
IN: 
0x40001888:  d65f03c0  ret      

----------------
IN: main
0x400006d8:  d2800220  movz     x0, #0x11
0x400006dc:  f2b00000  movk     x0, #0x8000, lsl #16
0x400006e0:  94000465  bl       #0x40001874

----------------
IN: 
0x40001874:  d51c1100  msr      hcr_el2, x0

----------------
IN: 
0x40001878:  d65f03c0  ret      

----------------
IN: main
0x400006e4:  d2800000  movz     x0, #0
0x400006e8:  94000465  bl       #0x4000187c

----------------
IN: 
0x4000187c:  d51c1140  msr      cptr_el2, x0

----------------
IN: 
0x40001880:  d65f03c0  ret      

----------------
IN: main
0x400006ec:  b0000001  adrp     x1, #0x40001000
0x400006f0:  912cc021  add      x1, x1, #0xb30
0x400006f4:  52800d20  movz     w0, #0x69
0x400006f8:  d2a12002  movz     x2, #0x900, lsl #16
0x400006fc:  528001a3  movz     w3, #0xd
0x40000700:  91000421  add      x1, x1, #1
0x40000704:  7100281f  cmp      w0, #0xa
0x40000708:  54000041  b.ne     #0x40000710

----------------
IN: main
0x40000710:  b9000040  str      w0, [x2]
0x40000714:  39400020  ldrb     w0, [x1]
0x40000718:  35ffff40  cbnz     w0, #0x40000700

----------------
IN: main
0x40000710:  b9000040  str      w0, [x2]

----------------
IN: main
0x40000714:  39400020  ldrb     w0, [x1]
0x40000718:  35ffff40  cbnz     w0, #0x40000700

----------------
IN: main
0x40000700:  91000421  add      x1, x1, #1
0x40000704:  7100281f  cmp      w0, #0xa
0x40000708:  54000041  b.ne     #0x40000710

----------------
IN: main
0x4000070c:  b9000043  str      w3, [x2]
0x40000710:  b9000040  str      w0, [x2]
0x40000714:  39400020  ldrb     w0, [x1]
0x40000718:  35ffff40  cbnz     w0, #0x40000700

----------------
IN: main
0x4000070c:  b9000043  str      w3, [x2]

----------------
IN: main
0x4000071c:  b0000000  adrp     x0, #0x40001000
0x40000720:  f0000001  adrp     x1, #0x40003000
0x40000724:  91000033  add      x19, x1, #0
0x40000728:  3dc33c00  ldr      q0, [x0, #0xcf0]
0x4000072c:  d29fe080  movz     x0, #0xff04
0x40000730:  3d800020  str      q0, [x1]
0x40000734:  9400045e  bl       #0x400018ac

----------------
IN: 
0x400018ac:  d51ca200  msr      mair_el2, x0

----------------
IN: 
0x400018b0:  d65f03c0  ret      

----------------
IN: main
0x40000738:  d286a320  movz     x0, #0x3519
0x4000073c:  f2a00040  movk     x0, #0x2, lsl #16
0x40000740:  94000449  bl       #0x40001864

----------------
IN: 
0x40001864:  d51c2040  msr      tcr_el2, x0

----------------
IN: 
0x40001868:  d65f03c0  ret      

----------------
IN: main
0x40000744:  aa1303e0  mov      x0, x19
0x40000748:  94000449  bl       #0x4000186c

----------------
IN: 
0x4000186c:  d51c2000  msr      ttbr0_el2, x0

----------------
IN: 
0x40001870:  d65f03c0  ret      

----------------
IN: main
0x4000074c:  d5033fdf  isb      

----------------
IN: main
0x40000750:  94000443  bl       #0x4000185c

----------------
IN: 
0x4000185c:  d53c1000  mrs      x0, sctlr_el2
0x40001860:  d65f03c0  ret      

----------------
IN: main
0x40000754:  d28200a1  movz     x1, #0x1005
0x40000758:  aa010000  orr      x0, x0, x1
0x4000075c:  9400043e  bl       #0x40001854

----------------
IN: 
0x40001854:  d51c1000  msr      sctlr_el2, x0

----------------
IN: 
0x40001858:  d65f03c0  ret      

----------------
IN: main
0x40000760:  d5033fdf  isb      

----------------
IN: main
0x40000764:  b0000001  adrp     x1, #0x40001000
0x40000768:  912d4021  add      x1, x1, #0xb50
0x4000076c:  52800d20  movz     w0, #0x69
0x40000770:  d2a12002  movz     x2, #0x900, lsl #16
0x40000774:  528001a3  movz     w3, #0xd
0x40000778:  91000421  add      x1, x1, #1
0x4000077c:  7100281f  cmp      w0, #0xa
0x40000780:  54000041  b.ne     #0x40000788

----------------
IN: main
0x40000788:  b9000040  str      w0, [x2]
0x4000078c:  39400020  ldrb     w0, [x1]
0x40000790:  35ffff40  cbnz     w0, #0x40000778

----------------
IN: main
0x40000788:  b9000040  str      w0, [x2]

----------------
IN: main
0x4000078c:  39400020  ldrb     w0, [x1]
0x40000790:  35ffff40  cbnz     w0, #0x40000778

----------------
IN: main
0x40000778:  91000421  add      x1, x1, #1
0x4000077c:  7100281f  cmp      w0, #0xa
0x40000780:  54000041  b.ne     #0x40000788

----------------
IN: main
0x40000784:  b9000043  str      w3, [x2]
0x40000788:  b9000040  str      w0, [x2]
0x4000078c:  39400020  ldrb     w0, [x1]
0x40000790:  35ffff40  cbnz     w0, #0x40000778

----------------
IN: main
0x40000784:  b9000043  str      w3, [x2]

----------------
IN: main
0x40000794:  97ffff67  bl       #0x40000530

----------------
IN: vm_create
0x40000530:  a9be7bfd  stp      x29, x30, [sp, #-0x20]!
0x40000534:  b0000000  adrp     x0, #0x40001000
0x40000538:  b0000001  adrp     x1, #0x40001000
0x4000053c:  910003fd  mov      x29, sp
0x40000540:  3dc33400  ldr      q0, [x0, #0xcd0]
0x40000544:  f9000bf3  str      x19, [sp, #0x10]
0x40000548:  3dc33821  ldr      q1, [x1, #0xce0]
0x4000054c:  d0000013  adrp     x19, #0x40002000
0x40000550:  91000273  add      x19, x19, #0
0x40000554:  52800041  movz     w1, #0x2
0x40000558:  91080260  add      x0, x19, #0x200
0x4000055c:  b9031a61  str      w1, [x19, #0x318]
0x40000560:  3c918000  stur     q0, [x0, #-0xe8]
0x40000564:  3c928001  stur     q1, [x0, #-0xd8]
0x40000568:  94000132  bl       #0x40000a30

----------------
IN: palloc
0x40000a30:  90000023  adrp     x3, #0x40004000
0x40000a34:  f9400061  ldr      x1, [x3]
0x40000a38:  aa0103e0  mov      x0, x1
0x40000a3c:  91400422  add      x2, x1, #1, lsl #12
0x40000a40:  f9000062  str      x2, [x3]
0x40000a44:  d503201f  nop      
0x40000a48:  f800843f  str      xzr, [x1], #8
0x40000a4c:  eb01005f  cmp      x2, x1
0x40000a50:  54ffffc1  b.ne     #0x40000a48

----------------
IN: palloc
0x40000a48:  f800843f  str      xzr, [x1], #8
0x40000a4c:  eb01005f  cmp      x2, x1
0x40000a50:  54ffffc1  b.ne     #0x40000a48

----------------
IN: palloc
0x40000a54:  d65f03c0  ret      

----------------
IN: vm_create
0x4000056c:  b0000001  adrp     x1, #0x40001000
0x40000570:  aa0003e7  mov      x7, x0
0x40000574:  b0000006  adrp     x6, #0x40001000
0x40000578:  3dc33420  ldr      q0, [x1, #0xcd0]
0x4000057c:  d2a80001  movz     x1, #0x4000, lsl #16
0x40000580:  f9008661  str      x1, [x19, #0x108]
0x40000584:  913970c6  add      x6, x6, #0xe5c
0x40000588:  a9139e61  stp      x1, x7, [x19, #0x138]
0x4000058c:  b0000001  adrp     x1, #0x40001000
0x40000590:  b0000008  adrp     x8, #0x40001000
0x40000594:  3dc33821  ldr      q1, [x1, #0xce0]
0x40000598:  91390108  add      x8, x8, #0xe40
0x4000059c:  9e660005  fmov     x5, d0
0x400005a0:  b0000004  adrp     x4, #0x40001000
0x400005a4:  cb0800c6  sub      x6, x6, x8
0x400005a8:  912aa084  add      x4, x4, #0xaa8
0x400005ac:  d2801882  movz     x2, #0xc4
0x400005b0:  52800d23  movz     w3, #0x69
0x400005b4:  528001a0  movz     w0, #0xd
0x400005b8:  fd00a661  str      d1, [x19, #0x148]
0x400005bc:  f900aa62  str      x2, [x19, #0x150]
0x400005c0:  91000484  add      x4, x4, #1
0x400005c4:  7100287f  cmp      w3, #0xa
0x400005c8:  54000041  b.ne     #0x400005d0

----------------
IN: vm_create
0x400005d0:  b90000a3  str      w3, [x5]
0x400005d4:  39400083  ldrb     w3, [x4]
0x400005d8:  35ffff43  cbnz     w3, #0x400005c0

----------------
IN: vm_create
0x400005d0:  b90000a3  str      w3, [x5]

----------------
IN: vm_create
0x400005d4:  39400083  ldrb     w3, [x4]
0x400005d8:  35ffff43  cbnz     w3, #0x400005c0

----------------
IN: vm_create
0x400005c0:  91000484  add      x4, x4, #1
0x400005c4:  7100287f  cmp      w3, #0xa
0x400005c8:  54000041  b.ne     #0x400005d0

----------------
IN: vm_create
0x400005dc:  aa0603e0  mov      x0, x6
0x400005e0:  97fffea0  bl       #0x40000060

----------------
IN: uart_put_hex
0x40000060:  b0000002  adrp     x2, #0x40001000
0x40000064:  91264042  add      x2, x2, #0x990
0x40000068:  52800601  movz     w1, #0x30
0x4000006c:  d2a12003  movz     x3, #0x900, lsl #16
0x40000070:  528001a4  movz     w4, #0xd
0x40000074:  d503201f  nop      
0x40000078:  91000442  add      x2, x2, #1
0x4000007c:  7100283f  cmp      w1, #0xa
0x40000080:  54000041  b.ne     #0x40000088

----------------
IN: uart_put_hex
0x40000088:  b9000061  str      w1, [x3]
0x4000008c:  39400041  ldrb     w1, [x2]
0x40000090:  35ffff41  cbnz     w1, #0x40000078

----------------
IN: uart_put_hex
0x40000088:  b9000061  str      w1, [x3]

----------------
IN: uart_put_hex
0x4000008c:  39400041  ldrb     w1, [x2]
0x40000090:  35ffff41  cbnz     w1, #0x40000078

----------------
IN: uart_put_hex
0x40000078:  91000442  add      x2, x2, #1
0x4000007c:  7100283f  cmp      w1, #0xa
0x40000080:  54000041  b.ne     #0x40000088

----------------
IN: uart_put_hex
0x40000094:  b0000004  adrp     x4, #0x40001000
0x40000098:  91340084  add      x4, x4, #0xd00
0x4000009c:  52800781  movz     w1, #0x3c
0x400000a0:  d2a12003  movz     x3, #0x900, lsl #16
0x400000a4:  528001a5  movz     w5, #0xd
0x400000a8:  9ac12402  lsr      x2, x0, x1
0x400000ac:  92400c42  and      x2, x2, #0xf
0x400000b0:  51001021  sub      w1, w1, #4
0x400000b4:  38626882  ldrb     w2, [x4, x2]
0x400000b8:  7100285f  cmp      w2, #0xa
0x400000bc:  54000041  b.ne     #0x400000c4

----------------
IN: uart_put_hex
0x400000c4:  b9000062  str      w2, [x3]
0x400000c8:  3100103f  cmn      w1, #4
0x400000cc:  54fffee1  b.ne     #0x400000a8

----------------
IN: uart_put_hex
0x400000c4:  b9000062  str      w2, [x3]

----------------
IN: uart_put_hex
0x400000c8:  3100103f  cmn      w1, #4
0x400000cc:  54fffee1  b.ne     #0x400000a8

----------------
IN: uart_put_hex
0x400000a8:  9ac12402  lsr      x2, x0, x1
0x400000ac:  92400c42  and      x2, x2, #0xf
0x400000b0:  51001021  sub      w1, w1, #4
0x400000b4:  38626882  ldrb     w2, [x4, x2]
0x400000b8:  7100285f  cmp      w2, #0xa
0x400000bc:  54000041  b.ne     #0x400000c4

----------------
IN: uart_put_hex
0x400000d0:  d65f03c0  ret      

----------------
IN: vm_create
0x400005e4:  b0000004  adrp     x4, #0x40001000
0x400005e8:  912b4084  add      x4, x4, #0xad0
0x400005ec:  52800403  movz     w3, #0x20
0x400005f0:  d2a12005  movz     x5, #0x900, lsl #16
0x400005f4:  528001a0  movz     w0, #0xd
0x400005f8:  91000484  add      x4, x4, #1
0x400005fc:  7100287f  cmp      w3, #0xa
0x40000600:  54000041  b.ne     #0x40000608

----------------
IN: vm_create
0x40000608:  b90000a3  str      w3, [x5]
0x4000060c:  39400083  ldrb     w3, [x4]
0x40000610:  35ffff43  cbnz     w3, #0x400005f8

----------------
IN: vm_create
0x40000608:  b90000a3  str      w3, [x5]

----------------
IN: vm_create
0x4000060c:  39400083  ldrb     w3, [x4]
0x40000610:  35ffff43  cbnz     w3, #0x400005f8

----------------
IN: vm_create
0x400005f8:  91000484  add      x4, x4, #1
0x400005fc:  7100287f  cmp      w3, #0xa
0x40000600:  54000041  b.ne     #0x40000608

----------------
IN: vm_create
0x40000604:  b90000a0  str      w0, [x5]
0x40000608:  b90000a3  str      w3, [x5]
0x4000060c:  39400083  ldrb     w3, [x4]
0x40000610:  35ffff43  cbnz     w3, #0x400005f8

----------------
IN: vm_create
0x40000604:  b90000a0  str      w0, [x5]

----------------
IN: vm_create
0x40000614:  aa0603e2  mov      x2, x6
0x40000618:  aa0803e1  mov      x1, x8
0x4000061c:  aa0703e0  mov      x0, x7
0x40000620:  94000110  bl       #0x40000a60

----------------
IN: memcpy
0x40000a60:  b40000e2  cbz      x2, #0x40000a7c

----------------
IN: memcpy
0x40000a64:  d2800003  movz     x3, #0
0x40000a68:  38636824  ldrb     w4, [x1, x3]
0x40000a6c:  38236804  strb     w4, [x0, x3]
0x40000a70:  91000463  add      x3, x3, #1
0x40000a74:  eb03005f  cmp      x2, x3
0x40000a78:  54ffff81  b.ne     #0x40000a68

----------------
IN: memcpy
0x40000a68:  38636824  ldrb     w4, [x1, x3]
0x40000a6c:  38236804  strb     w4, [x0, x3]
0x40000a70:  91000463  add      x3, x3, #1
0x40000a74:  eb03005f  cmp      x2, x3
0x40000a78:  54ffff81  b.ne     #0x40000a68

----------------
IN: memcpy
0x40000a7c:  d65f03c0  ret      

----------------
IN: vm_create
0x40000624:  d28078a0  movz     x0, #0x3c5
0x40000628:  f9008a60  str      x0, [x19, #0x110]
0x4000062c:  f9400bf3  ldr      x19, [sp, #0x10]
0x40000630:  a8c27bfd  ldp      x29, x30, [sp], #0x20
0x40000634:  d65f03c0  ret      

----------------
IN: 
0x00000000:  edfe0dd0  .byte    0xd0, 0x0d, 0xfe, 0xed

----------------
IN: 
0x40001200:  14000000  b        #0x40001200

